
;CodeVisionAVR C Compiler V3.12 Advanced
;(C) Copyright 1998-2014 Pavel Haiduc, HP InfoTech s.r.l.
;http://www.hpinfotech.com

;Build configuration    : Release
;Chip type              : ATmega8
;Program type           : Application
;Clock frequency        : 8,000000 MHz
;Memory model           : Small
;Optimize for           : Size
;(s)printf features     : int, width
;(s)scanf features      : int, width
;External RAM size      : 0
;Data Stack size        : 256 byte(s)
;Heap size              : 0 byte(s)
;Promote 'char' to 'int': Yes
;'char' is unsigned     : Yes
;8 bit enums            : Yes
;Global 'const' stored in FLASH: No
;Enhanced function parameter passing: Yes
;Enhanced core instructions: On
;Automatic register allocation for global variables: On
;Smart register allocation: On

	#define _MODEL_SMALL_

	#pragma AVRPART ADMIN PART_NAME ATmega8
	#pragma AVRPART MEMORY PROG_FLASH 8192
	#pragma AVRPART MEMORY EEPROM 512
	#pragma AVRPART MEMORY INT_SRAM SIZE 1024
	#pragma AVRPART MEMORY INT_SRAM START_ADDR 0x60

	.LISTMAC
	.EQU UDRE=0x5
	.EQU RXC=0x7
	.EQU USR=0xB
	.EQU UDR=0xC
	.EQU SPSR=0xE
	.EQU SPDR=0xF
	.EQU EERE=0x0
	.EQU EEWE=0x1
	.EQU EEMWE=0x2
	.EQU EECR=0x1C
	.EQU EEDR=0x1D
	.EQU EEARL=0x1E
	.EQU EEARH=0x1F
	.EQU WDTCR=0x21
	.EQU MCUCR=0x35
	.EQU GICR=0x3B
	.EQU SPL=0x3D
	.EQU SPH=0x3E
	.EQU SREG=0x3F

	.DEF R0X0=R0
	.DEF R0X1=R1
	.DEF R0X2=R2
	.DEF R0X3=R3
	.DEF R0X4=R4
	.DEF R0X5=R5
	.DEF R0X6=R6
	.DEF R0X7=R7
	.DEF R0X8=R8
	.DEF R0X9=R9
	.DEF R0XA=R10
	.DEF R0XB=R11
	.DEF R0XC=R12
	.DEF R0XD=R13
	.DEF R0XE=R14
	.DEF R0XF=R15
	.DEF R0X10=R16
	.DEF R0X11=R17
	.DEF R0X12=R18
	.DEF R0X13=R19
	.DEF R0X14=R20
	.DEF R0X15=R21
	.DEF R0X16=R22
	.DEF R0X17=R23
	.DEF R0X18=R24
	.DEF R0X19=R25
	.DEF R0X1A=R26
	.DEF R0X1B=R27
	.DEF R0X1C=R28
	.DEF R0X1D=R29
	.DEF R0X1E=R30
	.DEF R0X1F=R31

	.EQU __SRAM_START=0x0060
	.EQU __SRAM_END=0x045F
	.EQU __DSTACK_SIZE=0x0100
	.EQU __HEAP_SIZE=0x0000
	.EQU __CLEAR_SRAM_SIZE=__SRAM_END-__SRAM_START+1

	.MACRO __CPD1N
	CPI  R30,LOW(@0)
	LDI  R26,HIGH(@0)
	CPC  R31,R26
	LDI  R26,BYTE3(@0)
	CPC  R22,R26
	LDI  R26,BYTE4(@0)
	CPC  R23,R26
	.ENDM

	.MACRO __CPD2N
	CPI  R26,LOW(@0)
	LDI  R30,HIGH(@0)
	CPC  R27,R30
	LDI  R30,BYTE3(@0)
	CPC  R24,R30
	LDI  R30,BYTE4(@0)
	CPC  R25,R30
	.ENDM

	.MACRO __CPWRR
	CP   R@0,R@2
	CPC  R@1,R@3
	.ENDM

	.MACRO __CPWRN
	CPI  R@0,LOW(@2)
	LDI  R30,HIGH(@2)
	CPC  R@1,R30
	.ENDM

	.MACRO __ADDB1MN
	SUBI R30,LOW(-@0-(@1))
	.ENDM

	.MACRO __ADDB2MN
	SUBI R26,LOW(-@0-(@1))
	.ENDM

	.MACRO __ADDW1MN
	SUBI R30,LOW(-@0-(@1))
	SBCI R31,HIGH(-@0-(@1))
	.ENDM

	.MACRO __ADDW2MN
	SUBI R26,LOW(-@0-(@1))
	SBCI R27,HIGH(-@0-(@1))
	.ENDM

	.MACRO __ADDW1FN
	SUBI R30,LOW(-2*@0-(@1))
	SBCI R31,HIGH(-2*@0-(@1))
	.ENDM

	.MACRO __ADDD1FN
	SUBI R30,LOW(-2*@0-(@1))
	SBCI R31,HIGH(-2*@0-(@1))
	SBCI R22,BYTE3(-2*@0-(@1))
	.ENDM

	.MACRO __ADDD1N
	SUBI R30,LOW(-@0)
	SBCI R31,HIGH(-@0)
	SBCI R22,BYTE3(-@0)
	SBCI R23,BYTE4(-@0)
	.ENDM

	.MACRO __ADDD2N
	SUBI R26,LOW(-@0)
	SBCI R27,HIGH(-@0)
	SBCI R24,BYTE3(-@0)
	SBCI R25,BYTE4(-@0)
	.ENDM

	.MACRO __SUBD1N
	SUBI R30,LOW(@0)
	SBCI R31,HIGH(@0)
	SBCI R22,BYTE3(@0)
	SBCI R23,BYTE4(@0)
	.ENDM

	.MACRO __SUBD2N
	SUBI R26,LOW(@0)
	SBCI R27,HIGH(@0)
	SBCI R24,BYTE3(@0)
	SBCI R25,BYTE4(@0)
	.ENDM

	.MACRO __ANDBMNN
	LDS  R30,@0+(@1)
	ANDI R30,LOW(@2)
	STS  @0+(@1),R30
	.ENDM

	.MACRO __ANDWMNN
	LDS  R30,@0+(@1)
	ANDI R30,LOW(@2)
	STS  @0+(@1),R30
	LDS  R30,@0+(@1)+1
	ANDI R30,HIGH(@2)
	STS  @0+(@1)+1,R30
	.ENDM

	.MACRO __ANDD1N
	ANDI R30,LOW(@0)
	ANDI R31,HIGH(@0)
	ANDI R22,BYTE3(@0)
	ANDI R23,BYTE4(@0)
	.ENDM

	.MACRO __ANDD2N
	ANDI R26,LOW(@0)
	ANDI R27,HIGH(@0)
	ANDI R24,BYTE3(@0)
	ANDI R25,BYTE4(@0)
	.ENDM

	.MACRO __ORBMNN
	LDS  R30,@0+(@1)
	ORI  R30,LOW(@2)
	STS  @0+(@1),R30
	.ENDM

	.MACRO __ORWMNN
	LDS  R30,@0+(@1)
	ORI  R30,LOW(@2)
	STS  @0+(@1),R30
	LDS  R30,@0+(@1)+1
	ORI  R30,HIGH(@2)
	STS  @0+(@1)+1,R30
	.ENDM

	.MACRO __ORD1N
	ORI  R30,LOW(@0)
	ORI  R31,HIGH(@0)
	ORI  R22,BYTE3(@0)
	ORI  R23,BYTE4(@0)
	.ENDM

	.MACRO __ORD2N
	ORI  R26,LOW(@0)
	ORI  R27,HIGH(@0)
	ORI  R24,BYTE3(@0)
	ORI  R25,BYTE4(@0)
	.ENDM

	.MACRO __DELAY_USB
	LDI  R24,LOW(@0)
__DELAY_USB_LOOP:
	DEC  R24
	BRNE __DELAY_USB_LOOP
	.ENDM

	.MACRO __DELAY_USW
	LDI  R24,LOW(@0)
	LDI  R25,HIGH(@0)
__DELAY_USW_LOOP:
	SBIW R24,1
	BRNE __DELAY_USW_LOOP
	.ENDM

	.MACRO __GETD1S
	LDD  R30,Y+@0
	LDD  R31,Y+@0+1
	LDD  R22,Y+@0+2
	LDD  R23,Y+@0+3
	.ENDM

	.MACRO __GETD2S
	LDD  R26,Y+@0
	LDD  R27,Y+@0+1
	LDD  R24,Y+@0+2
	LDD  R25,Y+@0+3
	.ENDM

	.MACRO __PUTD1S
	STD  Y+@0,R30
	STD  Y+@0+1,R31
	STD  Y+@0+2,R22
	STD  Y+@0+3,R23
	.ENDM

	.MACRO __PUTD2S
	STD  Y+@0,R26
	STD  Y+@0+1,R27
	STD  Y+@0+2,R24
	STD  Y+@0+3,R25
	.ENDM

	.MACRO __PUTDZ2
	STD  Z+@0,R26
	STD  Z+@0+1,R27
	STD  Z+@0+2,R24
	STD  Z+@0+3,R25
	.ENDM

	.MACRO __CLRD1S
	STD  Y+@0,R30
	STD  Y+@0+1,R30
	STD  Y+@0+2,R30
	STD  Y+@0+3,R30
	.ENDM

	.MACRO __POINTB1MN
	LDI  R30,LOW(@0+(@1))
	.ENDM

	.MACRO __POINTW1MN
	LDI  R30,LOW(@0+(@1))
	LDI  R31,HIGH(@0+(@1))
	.ENDM

	.MACRO __POINTD1M
	LDI  R30,LOW(@0)
	LDI  R31,HIGH(@0)
	LDI  R22,BYTE3(@0)
	LDI  R23,BYTE4(@0)
	.ENDM

	.MACRO __POINTW1FN
	LDI  R30,LOW(2*@0+(@1))
	LDI  R31,HIGH(2*@0+(@1))
	.ENDM

	.MACRO __POINTD1FN
	LDI  R30,LOW(2*@0+(@1))
	LDI  R31,HIGH(2*@0+(@1))
	LDI  R22,BYTE3(2*@0+(@1))
	LDI  R23,BYTE4(2*@0+(@1))
	.ENDM

	.MACRO __POINTB2MN
	LDI  R26,LOW(@0+(@1))
	.ENDM

	.MACRO __POINTW2MN
	LDI  R26,LOW(@0+(@1))
	LDI  R27,HIGH(@0+(@1))
	.ENDM

	.MACRO __POINTW2FN
	LDI  R26,LOW(2*@0+(@1))
	LDI  R27,HIGH(2*@0+(@1))
	.ENDM

	.MACRO __POINTD2FN
	LDI  R26,LOW(2*@0+(@1))
	LDI  R27,HIGH(2*@0+(@1))
	LDI  R24,BYTE3(2*@0+(@1))
	LDI  R25,BYTE4(2*@0+(@1))
	.ENDM

	.MACRO __POINTBRM
	LDI  R@0,LOW(@1)
	.ENDM

	.MACRO __POINTWRM
	LDI  R@0,LOW(@2)
	LDI  R@1,HIGH(@2)
	.ENDM

	.MACRO __POINTBRMN
	LDI  R@0,LOW(@1+(@2))
	.ENDM

	.MACRO __POINTWRMN
	LDI  R@0,LOW(@2+(@3))
	LDI  R@1,HIGH(@2+(@3))
	.ENDM

	.MACRO __POINTWRFN
	LDI  R@0,LOW(@2*2+(@3))
	LDI  R@1,HIGH(@2*2+(@3))
	.ENDM

	.MACRO __GETD1N
	LDI  R30,LOW(@0)
	LDI  R31,HIGH(@0)
	LDI  R22,BYTE3(@0)
	LDI  R23,BYTE4(@0)
	.ENDM

	.MACRO __GETD2N
	LDI  R26,LOW(@0)
	LDI  R27,HIGH(@0)
	LDI  R24,BYTE3(@0)
	LDI  R25,BYTE4(@0)
	.ENDM

	.MACRO __GETB1MN
	LDS  R30,@0+(@1)
	.ENDM

	.MACRO __GETB1HMN
	LDS  R31,@0+(@1)
	.ENDM

	.MACRO __GETW1MN
	LDS  R30,@0+(@1)
	LDS  R31,@0+(@1)+1
	.ENDM

	.MACRO __GETD1MN
	LDS  R30,@0+(@1)
	LDS  R31,@0+(@1)+1
	LDS  R22,@0+(@1)+2
	LDS  R23,@0+(@1)+3
	.ENDM

	.MACRO __GETBRMN
	LDS  R@0,@1+(@2)
	.ENDM

	.MACRO __GETWRMN
	LDS  R@0,@2+(@3)
	LDS  R@1,@2+(@3)+1
	.ENDM

	.MACRO __GETWRZ
	LDD  R@0,Z+@2
	LDD  R@1,Z+@2+1
	.ENDM

	.MACRO __GETD2Z
	LDD  R26,Z+@0
	LDD  R27,Z+@0+1
	LDD  R24,Z+@0+2
	LDD  R25,Z+@0+3
	.ENDM

	.MACRO __GETB2MN
	LDS  R26,@0+(@1)
	.ENDM

	.MACRO __GETW2MN
	LDS  R26,@0+(@1)
	LDS  R27,@0+(@1)+1
	.ENDM

	.MACRO __GETD2MN
	LDS  R26,@0+(@1)
	LDS  R27,@0+(@1)+1
	LDS  R24,@0+(@1)+2
	LDS  R25,@0+(@1)+3
	.ENDM

	.MACRO __PUTB1MN
	STS  @0+(@1),R30
	.ENDM

	.MACRO __PUTW1MN
	STS  @0+(@1),R30
	STS  @0+(@1)+1,R31
	.ENDM

	.MACRO __PUTD1MN
	STS  @0+(@1),R30
	STS  @0+(@1)+1,R31
	STS  @0+(@1)+2,R22
	STS  @0+(@1)+3,R23
	.ENDM

	.MACRO __PUTB1EN
	LDI  R26,LOW(@0+(@1))
	LDI  R27,HIGH(@0+(@1))
	RCALL __EEPROMWRB
	.ENDM

	.MACRO __PUTW1EN
	LDI  R26,LOW(@0+(@1))
	LDI  R27,HIGH(@0+(@1))
	RCALL __EEPROMWRW
	.ENDM

	.MACRO __PUTD1EN
	LDI  R26,LOW(@0+(@1))
	LDI  R27,HIGH(@0+(@1))
	RCALL __EEPROMWRD
	.ENDM

	.MACRO __PUTBR0MN
	STS  @0+(@1),R0
	.ENDM

	.MACRO __PUTBMRN
	STS  @0+(@1),R@2
	.ENDM

	.MACRO __PUTWMRN
	STS  @0+(@1),R@2
	STS  @0+(@1)+1,R@3
	.ENDM

	.MACRO __PUTBZR
	STD  Z+@1,R@0
	.ENDM

	.MACRO __PUTWZR
	STD  Z+@2,R@0
	STD  Z+@2+1,R@1
	.ENDM

	.MACRO __GETW1R
	MOV  R30,R@0
	MOV  R31,R@1
	.ENDM

	.MACRO __GETW2R
	MOV  R26,R@0
	MOV  R27,R@1
	.ENDM

	.MACRO __GETWRN
	LDI  R@0,LOW(@2)
	LDI  R@1,HIGH(@2)
	.ENDM

	.MACRO __PUTW1R
	MOV  R@0,R30
	MOV  R@1,R31
	.ENDM

	.MACRO __PUTW2R
	MOV  R@0,R26
	MOV  R@1,R27
	.ENDM

	.MACRO __ADDWRN
	SUBI R@0,LOW(-@2)
	SBCI R@1,HIGH(-@2)
	.ENDM

	.MACRO __ADDWRR
	ADD  R@0,R@2
	ADC  R@1,R@3
	.ENDM

	.MACRO __SUBWRN
	SUBI R@0,LOW(@2)
	SBCI R@1,HIGH(@2)
	.ENDM

	.MACRO __SUBWRR
	SUB  R@0,R@2
	SBC  R@1,R@3
	.ENDM

	.MACRO __ANDWRN
	ANDI R@0,LOW(@2)
	ANDI R@1,HIGH(@2)
	.ENDM

	.MACRO __ANDWRR
	AND  R@0,R@2
	AND  R@1,R@3
	.ENDM

	.MACRO __ORWRN
	ORI  R@0,LOW(@2)
	ORI  R@1,HIGH(@2)
	.ENDM

	.MACRO __ORWRR
	OR   R@0,R@2
	OR   R@1,R@3
	.ENDM

	.MACRO __EORWRR
	EOR  R@0,R@2
	EOR  R@1,R@3
	.ENDM

	.MACRO __GETWRS
	LDD  R@0,Y+@2
	LDD  R@1,Y+@2+1
	.ENDM

	.MACRO __PUTBSR
	STD  Y+@1,R@0
	.ENDM

	.MACRO __PUTWSR
	STD  Y+@2,R@0
	STD  Y+@2+1,R@1
	.ENDM

	.MACRO __MOVEWRR
	MOV  R@0,R@2
	MOV  R@1,R@3
	.ENDM

	.MACRO __INWR
	IN   R@0,@2
	IN   R@1,@2+1
	.ENDM

	.MACRO __OUTWR
	OUT  @2+1,R@1
	OUT  @2,R@0
	.ENDM

	.MACRO __CALL1MN
	LDS  R30,@0+(@1)
	LDS  R31,@0+(@1)+1
	ICALL
	.ENDM

	.MACRO __CALL1FN
	LDI  R30,LOW(2*@0+(@1))
	LDI  R31,HIGH(2*@0+(@1))
	RCALL __GETW1PF
	ICALL
	.ENDM

	.MACRO __CALL2EN
	PUSH R26
	PUSH R27
	LDI  R26,LOW(@0+(@1))
	LDI  R27,HIGH(@0+(@1))
	RCALL __EEPROMRDW
	POP  R27
	POP  R26
	ICALL
	.ENDM

	.MACRO __CALL2EX
	SUBI R26,LOW(-@0)
	SBCI R27,HIGH(-@0)
	RCALL __EEPROMRDD
	ICALL
	.ENDM

	.MACRO __GETW1STACK
	IN   R30,SPL
	IN   R31,SPH
	ADIW R30,@0+1
	LD   R0,Z+
	LD   R31,Z
	MOV  R30,R0
	.ENDM

	.MACRO __GETD1STACK
	IN   R30,SPL
	IN   R31,SPH
	ADIW R30,@0+1
	LD   R0,Z+
	LD   R1,Z+
	LD   R22,Z
	MOVW R30,R0
	.ENDM

	.MACRO __NBST
	BST  R@0,@1
	IN   R30,SREG
	LDI  R31,0x40
	EOR  R30,R31
	OUT  SREG,R30
	.ENDM


	.MACRO __PUTB1SN
	LDD  R26,Y+@0
	LDD  R27,Y+@0+1
	SUBI R26,LOW(-@1)
	SBCI R27,HIGH(-@1)
	ST   X,R30
	.ENDM

	.MACRO __PUTW1SN
	LDD  R26,Y+@0
	LDD  R27,Y+@0+1
	SUBI R26,LOW(-@1)
	SBCI R27,HIGH(-@1)
	ST   X+,R30
	ST   X,R31
	.ENDM

	.MACRO __PUTD1SN
	LDD  R26,Y+@0
	LDD  R27,Y+@0+1
	SUBI R26,LOW(-@1)
	SBCI R27,HIGH(-@1)
	RCALL __PUTDP1
	.ENDM

	.MACRO __PUTB1SNS
	LDD  R26,Y+@0
	LDD  R27,Y+@0+1
	ADIW R26,@1
	ST   X,R30
	.ENDM

	.MACRO __PUTW1SNS
	LDD  R26,Y+@0
	LDD  R27,Y+@0+1
	ADIW R26,@1
	ST   X+,R30
	ST   X,R31
	.ENDM

	.MACRO __PUTD1SNS
	LDD  R26,Y+@0
	LDD  R27,Y+@0+1
	ADIW R26,@1
	RCALL __PUTDP1
	.ENDM

	.MACRO __PUTB1PMN
	LDS  R26,@0
	LDS  R27,@0+1
	SUBI R26,LOW(-@1)
	SBCI R27,HIGH(-@1)
	ST   X,R30
	.ENDM

	.MACRO __PUTW1PMN
	LDS  R26,@0
	LDS  R27,@0+1
	SUBI R26,LOW(-@1)
	SBCI R27,HIGH(-@1)
	ST   X+,R30
	ST   X,R31
	.ENDM

	.MACRO __PUTD1PMN
	LDS  R26,@0
	LDS  R27,@0+1
	SUBI R26,LOW(-@1)
	SBCI R27,HIGH(-@1)
	RCALL __PUTDP1
	.ENDM

	.MACRO __PUTB1PMNS
	LDS  R26,@0
	LDS  R27,@0+1
	ADIW R26,@1
	ST   X,R30
	.ENDM

	.MACRO __PUTW1PMNS
	LDS  R26,@0
	LDS  R27,@0+1
	ADIW R26,@1
	ST   X+,R30
	ST   X,R31
	.ENDM

	.MACRO __PUTD1PMNS
	LDS  R26,@0
	LDS  R27,@0+1
	ADIW R26,@1
	RCALL __PUTDP1
	.ENDM

	.MACRO __PUTB1RN
	MOVW R26,R@0
	SUBI R26,LOW(-@1)
	SBCI R27,HIGH(-@1)
	ST   X,R30
	.ENDM

	.MACRO __PUTW1RN
	MOVW R26,R@0
	SUBI R26,LOW(-@1)
	SBCI R27,HIGH(-@1)
	ST   X+,R30
	ST   X,R31
	.ENDM

	.MACRO __PUTD1RN
	MOVW R26,R@0
	SUBI R26,LOW(-@1)
	SBCI R27,HIGH(-@1)
	RCALL __PUTDP1
	.ENDM

	.MACRO __PUTB1RNS
	MOVW R26,R@0
	ADIW R26,@1
	ST   X,R30
	.ENDM

	.MACRO __PUTW1RNS
	MOVW R26,R@0
	ADIW R26,@1
	ST   X+,R30
	ST   X,R31
	.ENDM

	.MACRO __PUTD1RNS
	MOVW R26,R@0
	ADIW R26,@1
	RCALL __PUTDP1
	.ENDM

	.MACRO __PUTB1RON
	MOV  R26,R@0
	MOV  R27,R@1
	SUBI R26,LOW(-@2)
	SBCI R27,HIGH(-@2)
	ST   X,R30
	.ENDM

	.MACRO __PUTW1RON
	MOV  R26,R@0
	MOV  R27,R@1
	SUBI R26,LOW(-@2)
	SBCI R27,HIGH(-@2)
	ST   X+,R30
	ST   X,R31
	.ENDM

	.MACRO __PUTD1RON
	MOV  R26,R@0
	MOV  R27,R@1
	SUBI R26,LOW(-@2)
	SBCI R27,HIGH(-@2)
	RCALL __PUTDP1
	.ENDM

	.MACRO __PUTB1RONS
	MOV  R26,R@0
	MOV  R27,R@1
	ADIW R26,@2
	ST   X,R30
	.ENDM

	.MACRO __PUTW1RONS
	MOV  R26,R@0
	MOV  R27,R@1
	ADIW R26,@2
	ST   X+,R30
	ST   X,R31
	.ENDM

	.MACRO __PUTD1RONS
	MOV  R26,R@0
	MOV  R27,R@1
	ADIW R26,@2
	RCALL __PUTDP1
	.ENDM


	.MACRO __GETB1SX
	MOVW R30,R28
	SUBI R30,LOW(-@0)
	SBCI R31,HIGH(-@0)
	LD   R30,Z
	.ENDM

	.MACRO __GETB1HSX
	MOVW R30,R28
	SUBI R30,LOW(-@0)
	SBCI R31,HIGH(-@0)
	LD   R31,Z
	.ENDM

	.MACRO __GETW1SX
	MOVW R30,R28
	SUBI R30,LOW(-@0)
	SBCI R31,HIGH(-@0)
	LD   R0,Z+
	LD   R31,Z
	MOV  R30,R0
	.ENDM

	.MACRO __GETD1SX
	MOVW R30,R28
	SUBI R30,LOW(-@0)
	SBCI R31,HIGH(-@0)
	LD   R0,Z+
	LD   R1,Z+
	LD   R22,Z+
	LD   R23,Z
	MOVW R30,R0
	.ENDM

	.MACRO __GETB2SX
	MOVW R26,R28
	SUBI R26,LOW(-@0)
	SBCI R27,HIGH(-@0)
	LD   R26,X
	.ENDM

	.MACRO __GETW2SX
	MOVW R26,R28
	SUBI R26,LOW(-@0)
	SBCI R27,HIGH(-@0)
	LD   R0,X+
	LD   R27,X
	MOV  R26,R0
	.ENDM

	.MACRO __GETD2SX
	MOVW R26,R28
	SUBI R26,LOW(-@0)
	SBCI R27,HIGH(-@0)
	LD   R0,X+
	LD   R1,X+
	LD   R24,X+
	LD   R25,X
	MOVW R26,R0
	.ENDM

	.MACRO __GETBRSX
	MOVW R30,R28
	SUBI R30,LOW(-@1)
	SBCI R31,HIGH(-@1)
	LD   R@0,Z
	.ENDM

	.MACRO __GETWRSX
	MOVW R30,R28
	SUBI R30,LOW(-@2)
	SBCI R31,HIGH(-@2)
	LD   R@0,Z+
	LD   R@1,Z
	.ENDM

	.MACRO __GETBRSX2
	MOVW R26,R28
	SUBI R26,LOW(-@1)
	SBCI R27,HIGH(-@1)
	LD   R@0,X
	.ENDM

	.MACRO __GETWRSX2
	MOVW R26,R28
	SUBI R26,LOW(-@2)
	SBCI R27,HIGH(-@2)
	LD   R@0,X+
	LD   R@1,X
	.ENDM

	.MACRO __LSLW8SX
	MOVW R30,R28
	SUBI R30,LOW(-@0)
	SBCI R31,HIGH(-@0)
	LD   R31,Z
	CLR  R30
	.ENDM

	.MACRO __PUTB1SX
	MOVW R26,R28
	SUBI R26,LOW(-@0)
	SBCI R27,HIGH(-@0)
	ST   X,R30
	.ENDM

	.MACRO __PUTW1SX
	MOVW R26,R28
	SUBI R26,LOW(-@0)
	SBCI R27,HIGH(-@0)
	ST   X+,R30
	ST   X,R31
	.ENDM

	.MACRO __PUTD1SX
	MOVW R26,R28
	SUBI R26,LOW(-@0)
	SBCI R27,HIGH(-@0)
	ST   X+,R30
	ST   X+,R31
	ST   X+,R22
	ST   X,R23
	.ENDM

	.MACRO __CLRW1SX
	MOVW R26,R28
	SUBI R26,LOW(-@0)
	SBCI R27,HIGH(-@0)
	ST   X+,R30
	ST   X,R30
	.ENDM

	.MACRO __CLRD1SX
	MOVW R26,R28
	SUBI R26,LOW(-@0)
	SBCI R27,HIGH(-@0)
	ST   X+,R30
	ST   X+,R30
	ST   X+,R30
	ST   X,R30
	.ENDM

	.MACRO __PUTB2SX
	MOVW R30,R28
	SUBI R30,LOW(-@0)
	SBCI R31,HIGH(-@0)
	ST   Z,R26
	.ENDM

	.MACRO __PUTW2SX
	MOVW R30,R28
	SUBI R30,LOW(-@0)
	SBCI R31,HIGH(-@0)
	ST   Z+,R26
	ST   Z,R27
	.ENDM

	.MACRO __PUTD2SX
	MOVW R30,R28
	SUBI R30,LOW(-@0)
	SBCI R31,HIGH(-@0)
	ST   Z+,R26
	ST   Z+,R27
	ST   Z+,R24
	ST   Z,R25
	.ENDM

	.MACRO __PUTBSRX
	MOVW R30,R28
	SUBI R30,LOW(-@1)
	SBCI R31,HIGH(-@1)
	ST   Z,R@0
	.ENDM

	.MACRO __PUTWSRX
	MOVW R30,R28
	SUBI R30,LOW(-@2)
	SBCI R31,HIGH(-@2)
	ST   Z+,R@0
	ST   Z,R@1
	.ENDM

	.MACRO __PUTB1SNX
	MOVW R26,R28
	SUBI R26,LOW(-@0)
	SBCI R27,HIGH(-@0)
	LD   R0,X+
	LD   R27,X
	MOV  R26,R0
	SUBI R26,LOW(-@1)
	SBCI R27,HIGH(-@1)
	ST   X,R30
	.ENDM

	.MACRO __PUTW1SNX
	MOVW R26,R28
	SUBI R26,LOW(-@0)
	SBCI R27,HIGH(-@0)
	LD   R0,X+
	LD   R27,X
	MOV  R26,R0
	SUBI R26,LOW(-@1)
	SBCI R27,HIGH(-@1)
	ST   X+,R30
	ST   X,R31
	.ENDM

	.MACRO __PUTD1SNX
	MOVW R26,R28
	SUBI R26,LOW(-@0)
	SBCI R27,HIGH(-@0)
	LD   R0,X+
	LD   R27,X
	MOV  R26,R0
	SUBI R26,LOW(-@1)
	SBCI R27,HIGH(-@1)
	ST   X+,R30
	ST   X+,R31
	ST   X+,R22
	ST   X,R23
	.ENDM

	.MACRO __MULBRR
	MULS R@0,R@1
	MOVW R30,R0
	.ENDM

	.MACRO __MULBRRU
	MUL  R@0,R@1
	MOVW R30,R0
	.ENDM

	.MACRO __MULBRR0
	MULS R@0,R@1
	.ENDM

	.MACRO __MULBRRU0
	MUL  R@0,R@1
	.ENDM

	.MACRO __MULBNWRU
	LDI  R26,@2
	MUL  R26,R@0
	MOVW R30,R0
	MUL  R26,R@1
	ADD  R31,R0
	.ENDM

;NAME DEFINITIONS FOR GLOBAL VARIABLES ALLOCATED TO REGISTERS
	.DEF _n_pic=R5
	.DEF _zdvug=R6
	.DEF _zdvug_msb=R7
	.DEF _ready=R4
	.DEF _tmr_int=R8
	.DEF _tmr_int_msb=R9
	.DEF _vzdvug=R10
	.DEF _vzdvug_msb=R11
	.DEF _old_int=R12
	.DEF _old_int_msb=R13

	.CSEG
	.ORG 0x00

;START OF CODE MARKER
__START_OF_CODE:

;INTERRUPT VECTORS
	RJMP __RESET
	RJMP _ext_int0_isr
	RJMP _ext_int1_isr
	RJMP 0x00
	RJMP 0x00
	RJMP 0x00
	RJMP 0x00
	RJMP 0x00
	RJMP _timer1_ovf_isr
	RJMP 0x00
	RJMP 0x00
	RJMP 0x00
	RJMP 0x00
	RJMP 0x00
	RJMP 0x00
	RJMP 0x00
	RJMP 0x00
	RJMP 0x00
	RJMP 0x00

_a:
	.DB  0x0,0x1,0x1,0x1,0x81,0xC1,0x61,0x21
	.DB  0x21,0x21,0x61,0x41,0x1,0xE1,0xE1,0x21
	.DB  0x21,0x21,0xE1,0xE1,0x1,0x1,0x1,0x81
	.DB  0xE1,0x61,0xE1,0x81,0x1,0x1,0x1,0xE1
	.DB  0xE1,0x21,0x21,0x21,0xE1,0xC1,0x1,0x1
	.DB  0x1,0x81,0xE1,0x61,0xE1,0x81,0x1,0x1
	.DB  0x1,0x1,0x1,0x1,0x61,0xE1,0x81,0x1
	.DB  0x1,0x81,0xE1,0x61,0x1,0xE1,0xE1,0x1
	.DB  0x81,0xC1,0x61,0x21,0x1,0xE1,0xE1,0x21
	.DB  0x21,0x21,0xE1,0xC1,0x1,0x1,0x1,0x81
	.DB  0xE1,0x61,0xE1,0x81,0x1,0x1,0x9,0xE1
	.DB  0xE1,0x9,0x1,0xE1,0xE1,0x1,0x1,0x1
	.DB  0xE1,0xE1,0x1,0x1,0xE1,0xE1,0x1,0x1
	.DB  0x1,0x1,0x1,0x1,0x1,0x1,0xFF,0xFF
	.DB  0x1,0x1,0x1,0xFD,0xF9,0x31,0xE1,0x1
	.DB  0x1,0xFD,0xFD,0x1,0x1,0xE1,0x31,0xF9
	.DB  0xFD,0x1,0x1,0x1,0xFF,0xFF,0x1,0x1
	.DB  0x1,0x1,0x1,0x1,0x1,0x1,0x1,0xE1
	.DB  0xE1,0x21,0x21,0x21,0x21,0x1,0xE1,0xE1
	.DB  0x21,0x21,0x21,0x21,0x1,0x1,0xE1,0xE1
	.DB  0x21,0x21,0x21,0xE1,0xC1,0x1,0x1,0x81
	.DB  0xC1,0x61,0x21,0x21,0x61,0xC1,0x81,0x1
	.DB  0x1,0xC1,0xE1,0x21,0x21,0x21,0xE1,0xE1
	.DB  0x1,0x1,0xE1,0xE1,0xE1,0x81,0x1,0x81
	.DB  0xE1,0xE1,0xE1,0x1,0x1,0x1,0x1,0x1
	.DB  0x1,0x81,0xC1,0x61,0x21,0x21,0x21,0x61
	.DB  0x41,0x1,0xE1,0xE1,0x21,0x21,0x21,0xE1
	.DB  0xE1,0x1,0x1,0x1,0x81,0xE1,0x61,0xE1
	.DB  0x81,0x1,0x1,0x1,0xE1,0xE1,0x21,0x21
	.DB  0x21,0xE1,0xC1,0x1,0x1,0x1,0x81,0xE1
	.DB  0x61,0xE1,0x81,0x1,0x1,0x1,0x1,0x1
	.DB  0x1,0x1,0x1
_b:
	.DB  0x0,0x0,0x0,0x0,0x1F,0x3F,0x60,0x40
	.DB  0x40,0x40,0x60,0x20,0x40,0x7F,0x3F,0x0
	.DB  0x0,0x0,0x7F,0x7F,0x0,0x60,0x7C,0x1F
	.DB  0x13,0x10,0x13,0x1F,0x7C,0x60,0x0,0x7F
	.DB  0x7F,0x42,0x42,0x42,0x7F,0x3D,0x0,0x60
	.DB  0x7C,0x1F,0x13,0x10,0x13,0x1F,0x7C,0x60
	.DB  0x0,0x0,0x0,0x0,0x0,0x41,0x47,0x7E
	.DB  0x3C,0xF,0x3,0x0,0x0,0x7F,0x7F,0x2
	.DB  0xF,0x3D,0x70,0x40,0x0,0x7F,0x7F,0x4
	.DB  0x4,0x4,0x7,0x3,0x0,0x60,0x7C,0x1F
	.DB  0x13,0x10,0x13,0x1F,0x7C,0x60,0x0,0x7F
	.DB  0x7F,0x0,0x0,0x7F,0x7F,0x2,0x2,0x2
	.DB  0x7F,0x7F,0x0,0x0,0x7F,0x7F,0x0,0x0
	.DB  0x0,0x0,0x0,0x0,0x0,0x0,0xFF,0xFF
	.DB  0x0,0x0,0x0,0x7F,0x7F,0x4C,0x5F,0xF0
	.DB  0xFC,0x67,0x67,0xFC,0xF0,0x5F,0x4C,0x7F
	.DB  0x7F,0x0,0x0,0x0,0xFF,0xFF,0x0,0x0
	.DB  0x0,0x0,0x0,0x0,0x0,0x0,0x0,0x7F
	.DB  0x7F,0x0,0x0,0x0,0x0,0x0,0x7F,0x7F
	.DB  0x42,0x42,0x42,0x42,0x0,0x0,0x7F,0x7F
	.DB  0x4,0x4,0x4,0x7,0x3,0x0,0x0,0x1F
	.DB  0x3F,0x60,0x40,0x40,0x60,0x3F,0x1F,0x0
	.DB  0x40,0x73,0x3F,0xC,0x4,0x4,0x7F,0x7F
	.DB  0x0,0x0,0x7F,0x7F,0x1,0x3F,0x70,0x3F
	.DB  0x1,0x7F,0x7F,0x0,0x0,0x0,0x0,0x0
	.DB  0x0,0x1F,0x3F,0x60,0x40,0x40,0x40,0x60
	.DB  0x20,0x40,0x7F,0x3F,0x0,0x0,0x0,0x7F
	.DB  0x7F,0x0,0x60,0x7C,0x1F,0x13,0x10,0x13
	.DB  0x1F,0x7C,0x60,0x0,0x7F,0x7F,0x42,0x42
	.DB  0x42,0x7F,0x3D,0x0,0x60,0x7C,0x1F,0x13
	.DB  0x10,0x13,0x1F,0x7C,0x60,0x0,0x0,0x0
	.DB  0x0,0x0,0x0
_c:
	.DB  0x0,0x8,0x8,0x8,0x8,0x8,0x8,0x8
	.DB  0x8,0x8,0x8,0x8,0x8,0x8,0x8,0x8
	.DB  0x8,0x8,0x8,0x8,0x8,0x8,0x8,0x8
	.DB  0x8,0x8,0x8,0x8,0x8,0x8,0x8,0x8
	.DB  0x8,0x8,0x8,0x8,0x8,0x8,0x8,0x8
	.DB  0x8,0x8,0x8,0x8,0x8,0x8,0x8,0x8
	.DB  0x8,0x8,0x8,0x8,0x8,0x8,0x8,0x8
	.DB  0x8,0x8,0x8,0x8,0x8,0x8,0x8,0x8
	.DB  0x8,0x8,0x8,0x8,0x8,0x8,0x8,0x8
	.DB  0x8,0x8,0x8,0x8,0x8,0x8,0x8,0x8
	.DB  0x8,0x8,0x8,0x8,0x8,0x8,0x8,0x8
	.DB  0x8,0x8,0x8,0x8,0x8,0x8,0x8,0x8
	.DB  0x8,0x8,0x8,0x8,0x8,0x8,0x8,0x8
	.DB  0x8,0x8,0x8,0x8,0x8,0x8,0x9,0xB
	.DB  0xE,0xC,0x8,0x8,0x8,0x8,0x8,0x8
	.DB  0x9,0xB,0xB,0x9,0x8,0x8,0x8,0x8
	.DB  0x8,0x8,0xC,0xE,0xB,0x9,0x8,0x8
	.DB  0x8,0x8,0x8,0x8,0x8,0x8,0x8,0x8
	.DB  0x8,0x8,0x8,0x8,0x8,0x8,0x8,0x8
	.DB  0x8,0x8,0x8,0x8,0x8,0x8,0x8,0x8
	.DB  0x8,0x8,0x8,0x8,0x8,0x8,0x8,0x8
	.DB  0x8,0x8,0x8,0x8,0x8,0x8,0x8,0x8
	.DB  0x8,0x8,0x8,0x8,0x8,0x8,0x8,0x8
	.DB  0x8,0x8,0x8,0x8,0x8,0x8,0x8,0x8
	.DB  0x8,0x8,0x8,0x8,0x8,0x8,0x8,0x8
	.DB  0x8,0x8,0x8,0x8,0x8,0x8,0x8,0x8
	.DB  0x8,0x8,0x8,0x8,0x8,0x8,0x8,0x8
	.DB  0x8,0x8,0x8,0x8,0x8,0x8,0x8,0x8
	.DB  0x8,0x8,0x8,0x8,0x8,0x8,0x8,0x8
	.DB  0x8,0x8,0x8,0x8,0x8,0x8,0x8,0x8
	.DB  0x8,0x8,0x8,0x8,0x8,0x8,0x8,0x8
	.DB  0x8,0x8,0x8
_a2:
	.DB  0x0,0x1,0x1,0x1,0x1,0x1,0x1,0x1
	.DB  0x1,0x1,0x1,0xC1,0xC1,0x61,0x61,0xE1
	.DB  0xE1,0x1,0x1,0xE1,0xE1,0x61,0x61,0x61
	.DB  0xE1,0xE1,0x1,0x1,0x1,0x1,0x1,0x81
	.DB  0xC1,0xE1,0x1,0x1,0x1,0x1,0xE1,0xE1
	.DB  0x61,0x61,0xC1,0xC1,0x1,0x1,0x1,0x1
	.DB  0x1,0x81,0xC1,0xE1,0x1,0x1,0x1,0x1
	.DB  0x1,0x1,0x1,0x1,0x1,0x1,0xE1,0xE1
	.DB  0x1,0x1,0x1,0x1,0xE1,0xE1,0x1,0x1
	.DB  0x1,0x1,0x1,0x81,0xC1,0xE1,0x1,0x1
	.DB  0x1,0x1,0xE1,0xE1,0x1,0x1,0x1,0x1
	.DB  0xE1,0xE1,0x1,0x61,0x61,0xE1,0xE1,0x61
	.DB  0x61,0x1,0x61,0x6D,0xED,0xE1,0x6D,0x6D
	.DB  0x1,0x1,0xE1,0xE1,0x1,0x1,0x1,0x1
	.DB  0x1,0x1,0x1,0x1,0x1,0x1,0xC1,0xC1
	.DB  0x61,0x61,0xE1,0xE1,0x1,0x1,0xE1,0xE1
	.DB  0x1,0x1,0x1,0xE1,0xE1,0x1,0x1,0xE1
	.DB  0xE1,0x61,0x61,0x61,0x61,0x61,0x1,0x1
	.DB  0xE1,0xE1,0x61,0xE1,0xC1,0x1,0x61,0x61
	.DB  0x61,0xE1,0xE1,0x61,0x61,0x61,0x1,0x1
	.DB  0xE1,0xE1,0x1,0x1,0x1,0x1,0x1,0x1
	.DB  0x1,0x1,0x1,0x1,0x1,0x1,0xE1,0xE1
	.DB  0x61,0x61,0xC1,0xC1,0x1,0x1,0x81,0xC1
	.DB  0xE1,0x61,0x61,0x61,0xE1,0xC1,0x81,0x1
	.DB  0xE1,0xE1,0x61,0xE1,0xC1,0x1,0x1,0x81
	.DB  0xC1,0xE1,0x61,0x61,0x61,0xE1,0xC1,0x81
	.DB  0x1,0xE1,0xE1,0x61,0x61,0x61,0x61,0x61
	.DB  0x1,0x1,0x1,0x81,0xC1,0xE1,0x1,0x1
	.DB  0x1,0x1,0x1,0xE1,0xE1,0x1,0x1,0x1
	.DB  0xE1,0xE1,0x1,0x1,0x1,0xE1,0xE1,0x1
	.DB  0x1,0x1,0x1,0x1,0x1,0x1,0x1,0x1
	.DB  0x1,0x1,0x1
_b2:
	.DB  0x0,0x0,0x0,0x0,0x0,0x0,0x0,0x0
	.DB  0x0,0x1E,0x3F,0x63,0x60,0x60,0x60,0x30
	.DB  0x30,0x40,0x40,0x7F,0x3F,0x0,0x0,0x0
	.DB  0x7F,0x7F,0x0,0x0,0x60,0x78,0x1E,0xF
	.DB  0xD,0xF,0x7F,0x60,0x0,0x0,0x7F,0x7F
	.DB  0x66,0x66,0x77,0x3D,0x18,0x0,0x60,0x78
	.DB  0x1E,0xF,0xD,0xF,0x7F,0x60,0x0,0x0
	.DB  0x0,0x0,0x0,0x0,0x0,0x0,0x7F,0x7F
	.DB  0x6,0x6,0x6,0x6,0x7F,0x7F,0x0,0x0
	.DB  0x60,0x78,0x1E,0xF,0xD,0xF,0x7F,0x60
	.DB  0x0,0x0,0x7F,0x7F,0x60,0x60,0x60,0x60
	.DB  0x7F,0xFF,0xE0,0x60,0x60,0x7F,0x7F,0x60
	.DB  0x60,0x0,0x60,0x60,0x7F,0x7F,0x60,0x60
	.DB  0x0,0x0,0x6F,0x6F,0x0,0xC,0xC,0xC
	.DB  0xC,0xC,0x0,0x0,0x1E,0x3F,0x63,0x60
	.DB  0x60,0x60,0x30,0x30,0x70,0x7F,0xF,0xF
	.DB  0x7F,0x78,0x1F,0x3,0x7F,0x7C,0x0,0x3F
	.DB  0x7F,0x66,0x66,0x66,0x66,0x66,0x0,0x0
	.DB  0x7F,0x7F,0x6,0x7,0x3,0x0,0x0,0x0
	.DB  0x0,0x7F,0x7F,0x0,0x0,0x0,0x0,0x0
	.DB  0x7F,0x7F,0x63,0x63,0x7F,0x3E,0x0,0x0
	.DB  0x0,0x0,0x0,0x0,0x0,0x0,0x7F,0x7F
	.DB  0x66,0x66,0x77,0x3D,0x18,0x1F,0x3F,0x71
	.DB  0x60,0x60,0x60,0x70,0x38,0x1F,0xF,0x0
	.DB  0x7F,0x7F,0x6,0x7,0x3,0x0,0x1F,0x3F
	.DB  0x71,0x60,0x60,0x60,0x70,0x38,0x1F,0xF
	.DB  0x0,0x7F,0x7F,0x0,0x0,0x0,0x0,0x0
	.DB  0x60,0x78,0x1E,0xF,0xD,0xF,0x7F,0x60
	.DB  0x0,0x70,0x7F,0xF,0xF,0x7F,0x78,0x1F
	.DB  0x3,0x7F,0x7C,0x0,0x0,0x6F,0x6F,0x0
	.DB  0x0,0x0,0x0,0x0,0x0,0x0,0x0,0x0
	.DB  0x0,0x0,0x0
_c2:
	.DB  0x0,0x8,0x8,0x8,0x8,0x8,0x8,0x8
	.DB  0x8,0x8,0x8,0x8,0x8,0x8,0x8,0x8
	.DB  0x8,0x8,0x8,0x8,0x8,0x8,0x8,0x8
	.DB  0x8,0x8,0x8,0x8,0x8,0x8,0x8,0x8
	.DB  0x8,0x8,0x8,0x8,0x8,0x8,0x8,0x8
	.DB  0x8,0x8,0x8,0x8,0x8,0x8,0x8,0x8
	.DB  0x8,0x8,0x8,0x8,0x8,0x8,0x8,0x8
	.DB  0x8,0x8,0x8,0x8,0x8,0x8,0x8,0x8
	.DB  0x8,0x8,0x8,0x8,0x8,0x8,0x8,0x8
	.DB  0x8,0x8,0x8,0x8,0x8,0x8,0x8,0x8
	.DB  0x8,0x8,0x8,0x8,0x8,0x8,0x8,0x8
	.DB  0x8,0x9,0x9,0x8,0x8,0x8,0x8,0x8
	.DB  0x8,0x8,0x8,0x8,0x8,0x8,0x8,0x8
	.DB  0x8,0x8,0x8,0x8,0x8,0x8,0x8,0x8
	.DB  0x8,0x8,0x8,0x8,0x8,0x8,0x8,0x8
	.DB  0x8,0x8,0x8,0x8,0x8,0x8,0x8,0x8
	.DB  0x8,0x8,0x8,0x8,0x8,0x8,0x8,0x8
	.DB  0x8,0x8,0x8,0x8,0x8,0x8,0x8,0x8
	.DB  0x8,0x8,0x8,0x8,0x8,0x8,0x8,0x8
	.DB  0x8,0x8,0x8,0x8,0x8,0x8,0x8,0x8
	.DB  0x8,0x8,0x8,0x8,0x8,0x8,0x8,0x8
	.DB  0x8,0x8,0x8,0x8,0x8,0x8,0x8,0x8
	.DB  0x8,0x8,0x8,0x8,0x8,0x8,0x8,0x8
	.DB  0x8,0x8,0x8,0x8,0x8,0x8,0x8,0x8
	.DB  0x8,0x8,0x8,0x8,0x8,0x8,0x8,0x8
	.DB  0x8,0x8,0x8,0x8,0x8,0x8,0x8,0x8
	.DB  0x8,0x8,0x8,0x8,0x8,0x8,0x8,0x8
	.DB  0x8,0x8,0x8,0x8,0x8,0x8,0x8,0x8
	.DB  0x8,0x8,0x8,0x8,0x8,0x8,0x8,0x8
	.DB  0x8,0x8,0x8,0x8,0x8,0x8,0x8,0x8
	.DB  0x8,0x8,0x8,0x8,0x8,0x8,0x8,0x8
	.DB  0x8,0x8,0x8
_a3:
	.DB  0x0,0xFF,0xFF,0xFF,0xFF,0xFF,0xFF,0xFF
	.DB  0xFF,0xFF,0xFF,0xFF,0xFF,0xFF,0xFF,0xFF
	.DB  0xFF,0xFF,0xFF,0xFF,0xFF,0xFF,0xFF,0xFF
	.DB  0xFF,0xFF,0xFF,0xFF,0xFF,0xFF,0xFF,0xFF
	.DB  0xFF,0xFF,0xFF,0xFF,0xFF,0xFF,0xFF,0xFF
	.DB  0xFF,0x1,0x1,0x1,0x1,0x1,0x1,0x61
	.DB  0xE1,0x81,0x1,0x1,0x81,0xE1,0x61,0x1
	.DB  0xE1,0xE1,0x1,0xE1,0xE1,0x21,0x1,0x1
	.DB  0xE1,0xE1,0x61,0xE1,0xC1,0x1,0x1,0x1
	.DB  0x1,0x1,0x81,0xC1,0xE1,0x1,0x1,0x1
	.DB  0x61,0x6D,0xED,0xE1,0x6D,0x6D,0x1,0x1
	.DB  0xE1,0xE1,0x1,0x1,0x1,0x1,0xE1,0xE1
	.DB  0x1,0x1,0x1,0x1,0x1,0x81,0xC1,0xE1
	.DB  0x1,0x1,0x1,0x1,0x1,0x1,0x1,0x1
	.DB  0x1,0x61,0x61,0xE1,0xE1,0x61,0x61,0x61
	.DB  0x61,0xE1,0xE1,0x61,0x61,0x1,0x81,0xC1
	.DB  0xE1,0x61,0x61,0x61,0xE1,0xC1,0x81,0x1
	.DB  0xE1,0xE1,0x1,0x1,0x1,0x1,0xE1,0xE1
	.DB  0x1,0x1,0x1,0x1,0x1,0x81,0xC1,0xE1
	.DB  0x1,0x1,0x1,0x1,0x1,0xE1,0xE1,0x61
	.DB  0x61,0x61,0xE1,0xE1,0x1,0x1,0x1,0x1
	.DB  0x1,0x1,0x1,0x61,0xE1,0x81,0x1,0x1
	.DB  0x81,0xE1,0x61,0x1,0x1,0xC1,0xC1,0x61
	.DB  0x61,0xE1,0xE1,0xE1,0xE1,0x61,0x61,0x61
	.DB  0x61,0x61,0x1,0x1,0xE1,0xE1,0x1,0x1
	.DB  0x1,0x1,0x1,0x1,0x1,0x1,0x1,0x1
	.DB  0x1,0x1,0x1,0xFF,0xFF,0xFF,0xFF,0xFF
	.DB  0xFF,0xFF,0xFF,0xFF,0xFF,0xFF,0xFF,0xFF
	.DB  0xFF,0xFF,0xFF,0xFF,0xFF,0xFF,0xFF,0xFF
	.DB  0xFF,0xFF,0xFF,0xFF,0xFF,0xFF,0xFF,0xFF
	.DB  0xFF,0xFF,0xFF,0xFF,0xFF,0xFF,0xFF,0xFF
	.DB  0xFF,0xFF,0xFF
_b3:
	.DB  0x0,0xFF,0xFF,0xFF,0xFF,0xFF,0xFF,0xFF
	.DB  0xFF,0xFF,0xFF,0xFF,0xFF,0xFF,0xFF,0xFF
	.DB  0xFF,0xFF,0xFF,0xFF,0xFF,0xFF,0xFF,0xFF
	.DB  0xFF,0xFF,0xFF,0xFF,0xFF,0xFF,0xFF,0xFF
	.DB  0xFF,0xFF,0xFF,0xFF,0xFF,0xFF,0xFF,0xFF
	.DB  0xFF,0x0,0x0,0x0,0x0,0x0,0x0,0x0
	.DB  0x40,0x43,0x6F,0x3C,0xF,0x3,0x0,0x0
	.DB  0x7F,0x7F,0x3,0xF,0x7D,0x70,0x0,0x0
	.DB  0x7F,0x7F,0x6,0x7,0x3,0x0,0x0,0x60
	.DB  0x78,0x1E,0xF,0xD,0xF,0x7F,0x60,0x0
	.DB  0x60,0x60,0x7F,0x7F,0x60,0x60,0x0,0x0
	.DB  0x7F,0x7F,0x6,0x6,0x6,0x6,0x7F,0x7F
	.DB  0x0,0x0,0x60,0x78,0x1E,0xF,0xD,0xF
	.DB  0x7F,0x60,0x0,0x0,0x0,0x0,0x0,0x0
	.DB  0x0,0x0,0x0,0x7F,0x7F,0x0,0x0,0x0
	.DB  0x0,0x7F,0x7F,0x0,0x0,0x1F,0x3F,0x71
	.DB  0x60,0x60,0x60,0x70,0x38,0x1F,0xF,0x0
	.DB  0x7F,0x7F,0x6,0x6,0x6,0x6,0x7F,0x7F
	.DB  0x0,0x0,0x60,0x78,0x1E,0xF,0xD,0xF
	.DB  0x7F,0x60,0x0,0xE0,0xF0,0x7F,0x67,0x60
	.DB  0x60,0x60,0x7F,0xFF,0xE0,0x0,0x0,0x0
	.DB  0x0,0x0,0x0,0x0,0x40,0x43,0x6F,0x3C
	.DB  0xF,0x3,0x0,0x1E,0x3F,0x63,0x60,0x60
	.DB  0x60,0x30,0x30,0x3F,0x7F,0x66,0x66,0x66
	.DB  0x66,0x66,0x0,0x0,0x6F,0x6F,0x0,0x0
	.DB  0x0,0x0,0x0,0x0,0x0,0x0,0x0,0x0
	.DB  0x0,0x0,0x0,0xFF,0xFF,0xFF,0xFF,0xFF
	.DB  0xFF,0xFF,0xFF,0xFF,0xFF,0xFF,0xFF,0xFF
	.DB  0xFF,0xFF,0xFF,0xFF,0xFF,0xFF,0xFF,0xFF
	.DB  0xFF,0xFF,0xFF,0xFF,0xFF,0xFF,0xFF,0xFF
	.DB  0xFF,0xFF,0xFF,0xFF,0xFF,0xFF,0xFF,0xFF
	.DB  0xFF,0xFF,0xFF
_c3:
	.DB  0x0,0xF,0xF,0xF,0xF,0xF,0xF,0xF
	.DB  0xF,0xF,0xF,0xF,0xF,0xF,0xF,0xF
	.DB  0xF,0xF,0xF,0xF,0xF,0xF,0xF,0xF
	.DB  0xF,0xF,0xF,0xF,0xF,0xF,0xF,0xF
	.DB  0xF,0xF,0xF,0xF,0xF,0xF,0xF,0xF
	.DB  0xF,0x8,0x8,0x8,0x8,0x8,0x8,0x8
	.DB  0x8,0x8,0x8,0x8,0x8,0x8,0x8,0x8
	.DB  0x8,0x8,0x8,0x8,0x8,0x8,0x8,0x8
	.DB  0x8,0x8,0x8,0x8,0x8,0x8,0x8,0x8
	.DB  0x8,0x8,0x8,0x8,0x8,0x8,0x8,0x8
	.DB  0x8,0x8,0x8,0x8,0x8,0x8,0x8,0x8
	.DB  0x8,0x8,0x8,0x8,0x8,0x8,0x8,0x8
	.DB  0x8,0x8,0x8,0x8,0x8,0x8,0x8,0x8
	.DB  0x8,0x8,0x8,0x8,0x8,0x8,0x8,0x8
	.DB  0x8,0x8,0x8,0x8,0x8,0x8,0x8,0x8
	.DB  0x8,0x8,0x8,0x8,0x8,0x8,0x8,0x8
	.DB  0x8,0x8,0x8,0x8,0x8,0x8,0x8,0x8
	.DB  0x8,0x8,0x8,0x8,0x8,0x8,0x8,0x8
	.DB  0x8,0x8,0x8,0x8,0x8,0x8,0x8,0x8
	.DB  0x8,0x8,0x8,0x8,0x8,0x8,0x8,0x8
	.DB  0x8,0x8,0x8,0x8,0x8,0x8,0x8,0x8
	.DB  0x8,0x8,0x8,0x8,0x8,0x8,0x8,0x8
	.DB  0x8,0x8,0x8,0x8,0x8,0x8,0x8,0x8
	.DB  0x8,0x8,0x8,0x8,0x8,0x8,0x8,0x8
	.DB  0x8,0x8,0x8,0x8,0x8,0x8,0x8,0x8
	.DB  0x8,0x8,0x8,0x8,0x8,0x8,0x8,0x8
	.DB  0x8,0x8,0x8,0xF,0xF,0xF,0xF,0xF
	.DB  0xF,0xF,0xF,0xF,0xF,0xF,0xF,0xF
	.DB  0xF,0xF,0xF,0xF,0xF,0xF,0xF,0xF
	.DB  0xF,0xF,0xF,0xF,0xF,0xF,0xF,0xF
	.DB  0xF,0xF,0xF,0xF,0xF,0xF,0xF,0xF
	.DB  0xF,0xF,0xF
_a4:
	.DB  0x0,0x0,0x0,0x0,0x0,0x0,0x0,0x0
	.DB  0x0,0x0,0x0,0x0,0xC0,0xF0,0xF8,0xFC
	.DB  0xFC,0xFE,0xFE,0xFE,0xFE,0xFE,0xFE,0xFE
	.DB  0xFC,0xFC,0xF8,0xF0,0xC0,0x0,0x0,0x0
	.DB  0x0,0x0,0x0,0x0,0x0,0x0,0x0,0x0
	.DB  0x0,0x0,0x0,0x0,0x0,0x0,0x0,0x0
	.DB  0x0,0x0,0x0,0x0,0x0,0x60,0xE0,0xC0
	.DB  0x80,0x0,0x80,0xC0,0xE0,0x60,0x60,0xE0
	.DB  0x80,0x0,0x0,0x80,0xE0,0x60,0x60,0x60
	.DB  0x60,0xE0,0xE0,0x60,0x60,0x60,0x0,0x60
	.DB  0x60,0xE0,0xE0,0x60,0x60,0x0,0x0,0xE0
	.DB  0xE0,0x0,0x0,0x0,0x0,0xE0,0xE0,0x0
	.DB  0x0,0x0,0x0,0x0,0x0,0x0,0x0,0x0
	.DB  0x0,0x0,0x0,0x0,0x0,0x0,0x0,0x0
	.DB  0x0,0x0,0x0,0x0,0x60,0x60,0xE0,0xE0
	.DB  0x60,0x60,0x60,0x60,0xE0,0xE0,0x60,0x60
	.DB  0x60,0xE0,0x80,0x0,0x0,0x80,0xE0,0x60
	.DB  0x0,0xE0,0xE4,0x8,0x8,0x8,0x88,0xE4
	.DB  0xE0,0x0,0x0,0x0,0xE0,0xE0,0x60,0x60
	.DB  0x60,0xE0,0xE0,0x0,0x0,0x80,0xC0,0xE0
	.DB  0x60,0x60,0x60,0xE0,0xC0,0x80,0x0,0x0
	.DB  0x0,0x0,0x0,0x0,0x0,0xE0,0xE0,0x0
	.DB  0x0,0x0,0x0,0x0,0x0,0x0,0xE0,0xE0
	.DB  0x0,0x0,0x0,0x0,0x0,0x0,0x0,0xE0
	.DB  0xE0,0x0,0x0,0x0,0x0,0x0,0x0,0x0
	.DB  0x0,0x0,0x0,0x0,0x0,0x0,0x0,0x0
	.DB  0x0,0x0,0x0,0x0,0x80,0xE0,0x70,0x18
	.DB  0x8C,0xC4,0xC6,0xC2,0x82,0x2,0x82,0xC2
	.DB  0xC6,0xC4,0xCC,0x98,0x70,0xE0,0x80,0x0
	.DB  0x0,0x0,0x0,0x0,0x0,0x0,0x0,0x0
	.DB  0x0,0x0,0x0,0x0,0x0,0x0,0x0,0x0
	.DB  0x0,0x0,0x0
_b4:
	.DB  0x0,0x0,0x0,0x0,0x0,0x0,0x0,0x0
	.DB  0x0,0x0,0x0,0x0,0x7,0x1F,0x39,0x61
	.DB  0xC1,0xC3,0x87,0xFF,0xFF,0xBF,0x87,0xC3
	.DB  0xC1,0x71,0x3D,0xF,0x3,0x0,0x0,0x0
	.DB  0x0,0x0,0x0,0x0,0x0,0x0,0x0,0x0
	.DB  0x0,0x0,0x0,0x0,0x0,0x0,0x0,0x0
	.DB  0x0,0x0,0x0,0x0,0x0,0x60,0x70,0x39
	.DB  0x1F,0xF,0xF,0x39,0x70,0x60,0x0,0x40
	.DB  0x43,0x6F,0x3C,0xF,0x3,0x0,0x0,0x0
	.DB  0x0,0x7F,0x7F,0x0,0x0,0x0,0x0,0x60
	.DB  0x60,0x7F,0x7F,0x60,0x60,0x0,0x0,0x7F
	.DB  0x7F,0x6,0x6,0x6,0x6,0x7F,0x7F,0x0
	.DB  0x0,0x0,0x0,0x0,0x0,0x0,0x0,0xC
	.DB  0xC,0xC,0xC,0xC,0x0,0x0,0x0,0x0
	.DB  0x0,0x0,0x0,0x0,0x0,0x0,0x7F,0x7F
	.DB  0x0,0x0,0x0,0x0,0x7F,0x7F,0x0,0x0
	.DB  0x0,0x40,0x43,0x6F,0x3C,0xF,0x3,0x0
	.DB  0x0,0x7F,0x3F,0x1C,0xE,0x3,0x1,0x7F
	.DB  0x7F,0x0,0x40,0x40,0x7F,0x3F,0x0,0x0
	.DB  0x0,0x7F,0x7F,0x0,0x1F,0x3F,0x71,0x60
	.DB  0x60,0x60,0x70,0x38,0x1F,0xF,0x0,0x0
	.DB  0x0,0x0,0x0,0x0,0x0,0x6F,0x6F,0x0
	.DB  0x0,0x0,0x0,0x0,0x0,0x0,0x6F,0x6F
	.DB  0x0,0x0,0x0,0x0,0x0,0x0,0x0,0x6F
	.DB  0x6F,0x0,0x0,0x0,0x0,0x0,0x0,0x0
	.DB  0x0,0x0,0x0,0x0,0x0,0x0,0x0,0x0
	.DB  0x0,0x0,0x0,0x0,0x1F,0x7F,0xE0,0x80
	.DB  0x43,0x47,0xC5,0x87,0x83,0x80,0x83,0x87
	.DB  0xC7,0x47,0x47,0x83,0xE0,0x7F,0x1F,0x0
	.DB  0x0,0x0,0x0,0x0,0x0,0x0,0x0,0x0
	.DB  0x0,0x0,0x0,0x0,0x0,0x0,0x0,0x0
	.DB  0x0,0x0,0x0
_c4:
	.DB  0x0,0x0,0x0,0x0,0x0,0x0,0x0,0x0
	.DB  0x0,0x0,0x0,0x0,0x0,0x0,0x0,0x0
	.DB  0x1,0x3,0x3,0x7,0x7,0x7,0x3,0x1
	.DB  0x0,0x0,0x0,0x0,0x0,0x0,0x0,0x0
	.DB  0x0,0x0,0x0,0x0,0x0,0x0,0x0,0x0
	.DB  0x0,0x0,0x0,0x0,0x0,0x0,0x0,0x0
	.DB  0x0,0x0,0x0,0x0,0x0,0x0,0x0,0x0
	.DB  0x0,0x0,0x0,0x0,0x0,0x0,0x0,0x0
	.DB  0x0,0x0,0x0,0x0,0x0,0x0,0x0,0x0
	.DB  0x0,0x0,0x0,0x0,0x0,0x0,0x0,0x0
	.DB  0x0,0x0,0x0,0x0,0x0,0x0,0x0,0x0
	.DB  0x0,0x0,0x0,0x0,0x0,0x0,0x0,0x0
	.DB  0x0,0x0,0x0,0x0,0x0,0x0,0x0,0x0
	.DB  0x0,0x0,0x0,0x0,0x0,0x0,0x0,0x0
	.DB  0x0,0x0,0x0,0x0,0x0,0x0,0x0,0x0
	.DB  0x0,0x0,0x0,0x0,0x0,0x0,0x0,0x0
	.DB  0x0,0x0,0x0,0x0,0x0,0x0,0x0,0x0
	.DB  0x0,0x0,0x0,0x0,0x0,0x0,0x0,0x0
	.DB  0x0,0x0,0x0,0x0,0x0,0x0,0x0,0x0
	.DB  0x0,0x0,0x0,0x0,0x0,0x0,0x0,0x0
	.DB  0x0,0x0,0x0,0x0,0x0,0x0,0x0,0x0
	.DB  0x0,0x0,0x0,0x0,0x0,0x0,0x0,0x0
	.DB  0x0,0x0,0x0,0x0,0x0,0x0,0x0,0x0
	.DB  0x0,0x0,0x0,0x0,0x0,0x0,0x0,0x0
	.DB  0x0,0x0,0x0,0x0,0x0,0x0,0x0,0x0
	.DB  0x0,0x0,0x0,0x0,0x0,0x0,0x0,0x0
	.DB  0x0,0x0,0x0,0x0,0x0,0x0,0x0,0x1
	.DB  0x3,0x2,0x6,0x4,0x4,0x4,0x4,0x4
	.DB  0x6,0x2,0x3,0x1,0x0,0x0,0x0,0x0
	.DB  0x0,0x0,0x0,0x0,0x0,0x0,0x0,0x0
	.DB  0x0,0x0,0x0,0x0,0x0,0x0,0x0,0x0
	.DB  0x0,0x0,0x0
_a5:
	.DB  0x0,0x0,0x0,0x0,0x0,0x0,0x0,0x0
	.DB  0x0,0x0,0x0,0x0,0x0,0x0,0x0,0x0
	.DB  0xE0,0xF0,0xF0,0xF0,0xF0,0xF0,0xE0,0xF0
	.DB  0xF0,0xF0,0xF0,0xF0,0xE0,0x0,0x0,0x0
	.DB  0x0,0x0,0x0,0x0,0x0,0x0,0x0,0x0
	.DB  0x0,0x0,0x0,0x0,0x0,0x0,0x0,0x0
	.DB  0x0,0x0,0x0,0xE0,0xE0,0x0,0xC0,0xE0
	.DB  0x60,0x20,0x0,0xC0,0xE0,0xE0,0x60,0x60
	.DB  0xE0,0xE0,0xC0,0x0,0x20,0x60,0xE0,0xC0
	.DB  0x80,0xC0,0xE0,0x60,0x20,0x0,0x0,0xC0
	.DB  0xE0,0xE0,0xE0,0xC0,0x0,0x0,0x0,0xE0
	.DB  0xE0,0x0,0xC0,0xE0,0xE0,0x20,0x60,0xE0
	.DB  0xE0,0xC0,0x0,0x0,0x0,0x0,0x0,0x0
	.DB  0x80,0xC0,0xE0,0x60,0x20,0x60,0x60,0x40
	.DB  0x0,0xE0,0xE0,0x20,0x20,0x60,0xE0,0xE0
	.DB  0x0,0x0,0xC0,0xE0,0xE0,0x60,0x60,0xE0
	.DB  0xE0,0xC0,0x0,0x0,0xE0,0xE0,0x0,0xC0
	.DB  0xE0,0xE0,0x20,0x60,0xE0,0xE0,0xC0,0x0
	.DB  0x0,0x0,0x0,0x0,0x0,0xE0,0xE0,0x20
	.DB  0x20,0x20,0x20,0x0,0x20,0xE0,0xE0,0xC0
	.DB  0x0,0x0,0xC0,0xE0,0xE0,0x20,0xE0,0xE0
	.DB  0x20,0x20,0x20,0x20,0x0,0x20,0xE0,0xE0
	.DB  0xC0,0x0,0x0,0xC0,0xE0,0xE0,0x20,0xE0
	.DB  0xE0,0x0,0xC0,0xE0,0x60,0x20,0xE0,0xE0
	.DB  0xC0,0x0,0x0,0xC0,0xE0,0xE0,0x20,0x0
	.DB  0x0,0x0,0x0,0x0,0x0,0x0,0x0,0x0
	.DB  0x0,0x0,0x0,0x0,0x0,0x0,0x0,0x0
	.DB  0x0,0x0,0xE0,0xF0,0xF0,0xF0,0xF0,0xF0
	.DB  0xE0,0xF0,0xF0,0xF0,0xF0,0xF0,0xE0,0x0
	.DB  0x0,0x0,0x0,0x0,0x0,0x0,0x0,0x0
	.DB  0x0,0x0,0x0,0x0,0x0,0x0,0x0,0x0
	.DB  0x0,0x0,0x0
_b5:
	.DB  0x0,0x0,0x0,0x0,0x0,0x0,0x0,0x0
	.DB  0x0,0x0,0x0,0x0,0x0,0x0,0x0,0x0
	.DB  0x1,0x3,0x7,0x1F,0xFF,0xFF,0x7F,0x3F
	.DB  0x3F,0x1F,0xF,0x7,0x1,0x0,0x0,0x0
	.DB  0x0,0x0,0x0,0x0,0x0,0x0,0x0,0x0
	.DB  0x0,0x0,0x0,0x0,0x0,0x0,0x0,0x0
	.DB  0x0,0x0,0x0,0x7F,0x7F,0x7,0x1F,0x7F
	.DB  0x78,0x60,0x0,0x3F,0x7F,0x70,0x60,0x60
	.DB  0x70,0x7F,0x3F,0x0,0x40,0x60,0x79,0x3F
	.DB  0x1F,0x3F,0x79,0x60,0x40,0x70,0x7E,0x7F
	.DB  0x1F,0x11,0x17,0x7F,0x7E,0x70,0x0,0x7F
	.DB  0x7F,0x2,0x3F,0x7F,0x70,0x60,0x40,0x70
	.DB  0x7F,0x3F,0x0,0x0,0x0,0x0,0x0,0x0
	.DB  0x1F,0x3F,0x70,0x60,0x40,0x60,0x60,0x20
	.DB  0x0,0x7F,0x7F,0x42,0x42,0x67,0x7F,0x3F
	.DB  0x0,0x0,0x3F,0x7F,0x70,0x60,0x60,0x70
	.DB  0x7F,0x3F,0x0,0x0,0x7F,0x7F,0x2,0x3F
	.DB  0x7F,0x70,0x60,0x40,0x70,0x7F,0x3F,0x0
	.DB  0x0,0x0,0x0,0x0,0x0,0x7F,0x7F,0x42
	.DB  0x42,0x66,0x7E,0x3C,0x0,0x0,0x43,0x6F
	.DB  0x7F,0x3E,0x1F,0x7,0x0,0x0,0x7F,0x7F
	.DB  0x42,0x42,0x66,0x7E,0x3C,0x0,0x0,0x43
	.DB  0x6F,0x7F,0x3E,0x1F,0x7,0x0,0x0,0x7F
	.DB  0x7F,0x7,0x1F,0x7F,0x78,0x60,0x0,0x43
	.DB  0x6F,0x7F,0x3E,0x1F,0x7,0x0,0x0,0x0
	.DB  0x0,0x0,0x0,0x0,0x0,0x0,0x0,0x0
	.DB  0x0,0x0,0x0,0x0,0x0,0x0,0x0,0x0
	.DB  0x0,0x0,0x1,0x3,0x7,0x1F,0xFF,0xFF
	.DB  0x7F,0x3F,0x3F,0x1F,0xF,0x7,0x1,0x0
	.DB  0x0,0x0,0x0,0x0,0x0,0x0,0x0,0x0
	.DB  0x0,0x0,0x0,0x0,0x0,0x0,0x0,0x0
	.DB  0x0,0x0,0x0
_c5:
	.DB  0x0,0x0,0x0,0x0,0x0,0x0,0x0,0x0
	.DB  0x0,0x0,0x0,0x0,0x0,0x0,0x0,0x0
	.DB  0x0,0x0,0x0,0x0,0x0,0x0,0x0,0x0
	.DB  0x0,0x0,0x0,0x0,0x0,0x0,0x0,0x0
	.DB  0x0,0x0,0x0,0x0,0x0,0x0,0x0,0x0
	.DB  0x0,0x0,0x0,0x0,0x0,0x0,0x0,0x0
	.DB  0x0,0x0,0x0,0x0,0x0,0x0,0x0,0x0
	.DB  0x0,0x0,0x0,0x0,0x0,0x0,0x0,0x0
	.DB  0x0,0x0,0x0,0x0,0x0,0x0,0x0,0x0
	.DB  0x0,0x0,0x0,0x0,0x0,0x0,0x0,0x0
	.DB  0x0,0x0,0x0,0x0,0x0,0x0,0x0,0x0
	.DB  0x0,0x0,0x0,0x0,0x0,0x0,0x0,0x0
	.DB  0x0,0x0,0x0,0x0,0x0,0x0,0x0,0x0
	.DB  0x0,0x0,0x0,0x0,0x0,0x0,0x0,0x0
	.DB  0x0,0x0,0x0,0x0,0x0,0x0,0x0,0x0
	.DB  0x0,0x0,0x0,0x0,0x0,0x0,0x0,0x0
	.DB  0x0,0x0,0x0,0x0,0x0,0x0,0x0,0x0
	.DB  0x0,0x0,0x0,0x0,0x0,0x0,0x0,0x0
	.DB  0x0,0x0,0x0,0x0,0x0,0x0,0x0,0x0
	.DB  0x0,0x0,0x0,0x0,0x0,0x0,0x0,0x0
	.DB  0x0,0x0,0x0,0x0,0x0,0x0,0x0,0x0
	.DB  0x0,0x0,0x0,0x0,0x0,0x0,0x0,0x0
	.DB  0x0,0x0,0x0,0x0,0x0,0x0,0x0,0x0
	.DB  0x0,0x0,0x0,0x0,0x0,0x0,0x0,0x0
	.DB  0x0,0x0,0x0,0x0,0x0,0x0,0x0,0x0
	.DB  0x0,0x0,0x0,0x0,0x0,0x0,0x0,0x0
	.DB  0x0,0x0,0x0,0x0,0x0,0x0,0x0,0x0
	.DB  0x0,0x0,0x0,0x0,0x0,0x0,0x0,0x0
	.DB  0x0,0x0,0x0,0x0,0x0,0x0,0x0,0x0
	.DB  0x0,0x0,0x0,0x0,0x0,0x0,0x0,0x0
	.DB  0x0,0x0,0x0,0x0,0x0,0x0,0x0,0x0
	.DB  0x0,0x0,0x0
_a6:
	.DB  0x0,0x0,0x0,0x0,0x0,0x0,0x0,0x0
	.DB  0x0,0x0,0x0,0x0,0x0,0x0,0x0,0x0
	.DB  0x0,0x0,0x0,0x0,0x0,0x0,0x0,0x0
	.DB  0x80,0xC0,0x20,0x10,0x98,0x88,0x8,0x8
	.DB  0x88,0x98,0x10,0x20,0xC0,0x80,0x0,0x0
	.DB  0x0,0x0,0x0,0x0,0x0,0x0,0x0,0x0
	.DB  0x0,0x0,0x0,0x0,0x0,0x0,0x8,0x78
	.DB  0xE0,0xC0,0x0,0x0,0x0,0x0,0x0,0x0
	.DB  0x0,0x0,0x0,0x0,0x0,0x0,0x0,0x0
	.DB  0x0,0x80,0x40,0xA0,0x90,0x88,0x8,0x8
	.DB  0x8,0x8,0x18,0x10,0x20,0xC0,0x80,0x0
	.DB  0x0,0x0,0x0,0x0,0x0,0x0,0x0,0xC0
	.DB  0x20,0x20,0x30,0x48,0x8,0x88,0x8,0x48
	.DB  0x30,0x20,0x20,0xC0,0x0,0x0,0x0,0x0
	.DB  0x0,0x0,0x0,0x0,0x0,0x0,0x80,0xC0
	.DB  0x40,0x20,0x30,0xE0,0xC0,0x40,0x20,0x30
	.DB  0x60,0xC0,0x40,0x20,0x20,0x70,0xC0,0x0
	.DB  0x0,0x0,0x0,0x0,0x0,0x0,0x0,0xC0
	.DB  0x30,0x10,0x18,0x18,0x28,0xCC,0xC,0xC
	.DB  0xC,0xC,0xC,0xC,0x8C,0x98,0x98,0x10
	.DB  0x10,0x0,0x0,0x0,0x0,0x0,0x0,0x0
	.DB  0x0,0x80,0xF8,0x8C,0x1C,0x60,0x80,0x0
	.DB  0x0,0x0,0x0,0x0,0x0,0x0,0x0,0x0
	.DB  0x0,0x0,0x0,0xF0,0x0,0xF0,0x0,0xE0
	.DB  0xE0,0x0,0xF0,0x0,0xF0,0x0,0x0,0x0
	.DB  0x0,0x0,0x0,0x0,0x0,0x0,0x0,0x0
	.DB  0x0,0x0,0x0,0x0,0x0,0x0,0x0,0x0
	.DB  0x0,0x0,0x0,0x0,0x0,0x0,0x0,0x0
	.DB  0x0,0x0,0x0,0x0,0x0,0x0,0x0,0x0
	.DB  0x0,0x0,0x0,0x0,0x0,0x0,0x0,0x0
	.DB  0x0,0x0,0x0,0x0,0x0,0x0,0x0,0x0
	.DB  0x0,0x0,0x0
_b6:
	.DB  0x0,0x0,0x0,0x0,0x0,0x0,0x0,0x0
	.DB  0x0,0x0,0x0,0x0,0x0,0x0,0x0,0x0
	.DB  0x0,0x0,0x0,0x0,0x0,0x0,0x0,0x0
	.DB  0x1F,0x30,0x40,0x8C,0x91,0x21,0x20,0x20
	.DB  0x21,0x91,0x8C,0x40,0x30,0x1F,0x0,0x0
	.DB  0x0,0x0,0x0,0x0,0x0,0x0,0x0,0x0
	.DB  0x0,0x9,0x6,0x2,0x6,0x6,0x6,0xE6
	.DB  0x7F,0x3F,0xF,0x6,0x6,0x6,0x0,0x0
	.DB  0x0,0x0,0x0,0x0,0x0,0x0,0x0,0x0
	.DB  0x0,0x1F,0x3F,0x7F,0xF9,0xF9,0xFF,0xFE
	.DB  0xF0,0xE0,0xE6,0xE6,0x60,0x30,0x1F,0x0
	.DB  0x0,0x0,0x0,0x0,0x0,0x0,0x3,0x1D
	.DB  0x28,0x24,0x40,0x87,0x85,0x7A,0x87,0x80
	.DB  0xC4,0x24,0x24,0x3C,0x3,0x0,0x0,0x0
	.DB  0x0,0x0,0x0,0x0,0x0,0x0,0x40,0x20
	.DB  0x30,0x10,0x18,0x30,0x60,0x20,0x10,0x18
	.DB  0x38,0x60,0x20,0x10,0x18,0x38,0x60,0x0
	.DB  0x0,0x0,0x0,0x0,0x0,0x0,0x0,0x21
	.DB  0x22,0x64,0x64,0xC4,0xC2,0xC1,0xC0,0xC0
	.DB  0xC0,0xC0,0xCE,0x51,0x60,0x60,0x20,0x31
	.DB  0xE,0x0,0x0,0x0,0x0,0x0,0x0,0x0
	.DB  0xF,0x34,0x74,0x74,0x5C,0x70,0x20,0x11
	.DB  0x11,0xE,0x0,0x0,0x0,0x0,0x0,0x0
	.DB  0x0,0x0,0x7C,0x5,0x7F,0x3,0x1F,0x3F
	.DB  0x3F,0x1F,0x3,0x7F,0x5,0x7C,0x0,0x0
	.DB  0x0,0x0,0x0,0x0,0x0,0x0,0x0,0x0
	.DB  0x0,0x0,0x0,0x0,0x0,0x0,0x0,0x0
	.DB  0x0,0x0,0x0,0x0,0x0,0x0,0x0,0x0
	.DB  0x0,0x0,0x0,0x0,0x0,0x0,0x0,0x0
	.DB  0x0,0x0,0x0,0x0,0x0,0x0,0x0,0x0
	.DB  0x0,0x0,0x0,0x0,0x0,0x0,0x0,0x0
	.DB  0x0,0x0,0x0
_c6:
	.DB  0x0,0x0,0x0,0x0,0x0,0x0,0x0,0x0
	.DB  0x0,0x0,0x0,0x0,0x0,0x0,0x0,0x0
	.DB  0x0,0x0,0x0,0x0,0x0,0x0,0x0,0x0
	.DB  0x0,0x0,0x0,0x0,0x1,0x1,0x1,0x1
	.DB  0x1,0x1,0x0,0x0,0x0,0x0,0x0,0x0
	.DB  0x0,0x0,0x0,0x0,0x0,0x0,0x0,0x0
	.DB  0x0,0x0,0x0,0x0,0x0,0x0,0x1,0x1
	.DB  0x0,0x0,0x0,0x0,0x0,0x0,0x0,0x0
	.DB  0x0,0x0,0x0,0x0,0x0,0x0,0x0,0x0
	.DB  0x0,0x0,0x0,0x0,0x0,0x1,0x1,0x1
	.DB  0x1,0x1,0x1,0x0,0x0,0x0,0x0,0x0
	.DB  0x0,0x0,0x0,0x0,0x0,0x0,0x0,0x0
	.DB  0x0,0x0,0x0,0x0,0x0,0x0,0x0,0x0
	.DB  0x0,0x0,0x0,0x0,0x0,0x0,0x0,0x0
	.DB  0x0,0x0,0x0,0x0,0x0,0x0,0x0,0x0
	.DB  0x0,0x0,0x0,0x0,0x0,0x0,0x0,0x0
	.DB  0x0,0x0,0x0,0x0,0x0,0x0,0x0,0x0
	.DB  0x0,0x0,0x0,0x0,0x0,0x0,0x0,0x0
	.DB  0x0,0x0,0x0,0x0,0x0,0x0,0x0,0x0
	.DB  0x0,0x0,0x0,0x0,0x0,0x0,0x0,0x0
	.DB  0x0,0x0,0x0,0x0,0x0,0x0,0x0,0x0
	.DB  0x0,0x0,0x0,0x0,0x0,0x0,0x0,0x0
	.DB  0x0,0x0,0x0,0x0,0x0,0x0,0x0,0x0
	.DB  0x0,0x0,0x0,0x0,0x0,0x0,0x0,0x0
	.DB  0x0,0x0,0x0,0x0,0x0,0x0,0x0,0x0
	.DB  0x0,0x0,0x0,0x0,0x0,0x0,0x0,0x0
	.DB  0x0,0x0,0x0,0x0,0x0,0x0,0x0,0x0
	.DB  0x0,0x0,0x0,0x0,0x0,0x0,0x0,0x0
	.DB  0x0,0x0,0x0,0x0,0x0,0x0,0x0,0x0
	.DB  0x0,0x0,0x0,0x0,0x0,0x0,0x0,0x0
	.DB  0x0,0x0,0x0,0x0,0x0,0x0,0x0,0x0
	.DB  0x0,0x0,0x0

;GLOBAL REGISTER VARIABLES INITIALIZATION
__REG_VARS:
	.DB  0x0,0x1,0x0,0x0

_0x3:
	.DB  0x69,0x1
_0x4:
	.DB  0xFA

__GLOBAL_INI_TBL:
	.DW  0x04
	.DW  0x04
	.DW  __REG_VARS*2

	.DW  0x02
	.DW  _cnt_line
	.DW  _0x3*2

	.DW  0x01
	.DW  _max_line
	.DW  _0x4*2

_0xFFFFFFFF:
	.DW  0

#define __GLOBAL_INI_TBL_PRESENT 1

__RESET:
	CLI
	CLR  R30
	OUT  EECR,R30

;INTERRUPT VECTORS ARE PLACED
;AT THE START OF FLASH
	LDI  R31,1
	OUT  GICR,R31
	OUT  GICR,R30
	OUT  MCUCR,R30

;DISABLE WATCHDOG
	LDI  R31,0x18
	OUT  WDTCR,R31
	OUT  WDTCR,R30

;CLEAR R2-R14
	LDI  R24,(14-2)+1
	LDI  R26,2
	CLR  R27
__CLEAR_REG:
	ST   X+,R30
	DEC  R24
	BRNE __CLEAR_REG

;CLEAR SRAM
	LDI  R24,LOW(__CLEAR_SRAM_SIZE)
	LDI  R25,HIGH(__CLEAR_SRAM_SIZE)
	LDI  R26,__SRAM_START
__CLEAR_SRAM:
	ST   X+,R30
	SBIW R24,1
	BRNE __CLEAR_SRAM

;GLOBAL VARIABLES INITIALIZATION
	LDI  R30,LOW(__GLOBAL_INI_TBL*2)
	LDI  R31,HIGH(__GLOBAL_INI_TBL*2)
__GLOBAL_INI_NEXT:
	LPM  R24,Z+
	LPM  R25,Z+
	SBIW R24,0
	BREQ __GLOBAL_INI_END
	LPM  R26,Z+
	LPM  R27,Z+
	LPM  R0,Z+
	LPM  R1,Z+
	MOVW R22,R30
	MOVW R30,R0
__GLOBAL_INI_LOOP:
	LPM  R0,Z+
	ST   X+,R0
	SBIW R24,1
	BRNE __GLOBAL_INI_LOOP
	MOVW R30,R22
	RJMP __GLOBAL_INI_NEXT
__GLOBAL_INI_END:

;HARDWARE STACK POINTER INITIALIZATION
	LDI  R30,LOW(__SRAM_END-__HEAP_SIZE)
	OUT  SPL,R30
	LDI  R30,HIGH(__SRAM_END-__HEAP_SIZE)
	OUT  SPH,R30

;DATA STACK POINTER INITIALIZATION
	LDI  R28,LOW(__SRAM_START+__DSTACK_SIZE)
	LDI  R29,HIGH(__SRAM_START+__DSTACK_SIZE)

	RJMP _main

	.ESEG
	.ORG 0

	.DSEG
	.ORG 0x160

	.CSEG
;/*****************************************************
;This program was produced by the
;CodeWizardAVR V2.05.0 Professional
;Automatic Program Generator
;© Copyright 1998-2010 Pavel Haiduc, HP InfoTech s.r.l.
;http://www.hpinfotech.com
;
;Project :
;Version :
;Date    : 29.04.2014
;Author  :
;Company :
;Comments:
;
;
;Chip type               : ATmega8
;Program type            : Application
;AVR Core Clock frequency: 8,000000 MHz
;Memory model            : Small
;External RAM size       : 0
;Data Stack size         : 256
;*****************************************************/
;flash char a[]={0,1,1,1,129,193,97,33,33,33,97,65,1,225,225,33,33,33,225,225,1,1,1,129,225,97,225,129,1,1,1,225,225,33,3 ...
;flash char b[]={0,0,0,0,31,63,96,64,64,64,96,32,64,127,63,0,0,0,127,127,0,96,124,31,19,16,19,31,124,96,0,127,127,66,66,6 ...
;flash char c[]={0,8,8,8,8,8,8,8,8,8,8,8,8,8,8,8,8,8,8,8,8,8,8,8,8,8,8,8,8,8,8,8,8,8,8,8,8,8,8,8,8,8,8,8,8,8,8,8,8,8,8,8, ...
;
;flash char a2[]={0,1,1,1,1,1,1,1,1,1,1,193,193,97,97,225,225,1,1,225,225,97,97,97,225,225,1,1,1,1,1,129,193,225,1,1,1,1, ...
;flash char b2[]={0,0,0,0,0,0,0,0,0,30,63,99,96,96,96,48,48,64,64,127,63,0,0,0,127,127,0,0,96,120,30,15,13,15,127,96,0,0, ...
;flash char c2[]={0,8,8,8,8,8,8,8,8,8,8,8,8,8,8,8,8,8,8,8,8,8,8,8,8,8,8,8,8,8,8,8,8,8,8,8,8,8,8,8,8,8,8,8,8,8,8,8,8,8,8,8 ...
;
;flash char a3[]={0,255,255,255,255,255,255,255,255,255,255,255,255,255,255,255,255,255,255,255,255,255,255,255,255,255,2 ...
;flash char b3[]={0,255,255,255,255,255,255,255,255,255,255,255,255,255,255,255,255,255,255,255,255,255,255,255,255,255,2 ...
;flash char c3[]={0,15,15,15,15,15,15,15,15,15,15,15,15,15,15,15,15,15,15,15,15,15,15,15,15,15,15,15,15,15,15,15,15,15,15 ...
;
;
;flash char a4[]={0,0,0,0,0,0,0,0,0,0,0,0,192,240,248,252,252,254,254,254,254,254,254,254,252,252,248,240,192,0,0,0,0,0,0 ...
;flash char b4[]={0,0,0,0,0,0,0,0,0,0,0,0,7,31,57,97,193,195,135,255,255,191,135,195,193,113,61,15,3,0,0,0,0,0,0,0,0,0,0, ...
;flash char c4[]={0,0,0,0,0,0,0,0,0,0,0,0,0,0,0,0,1,3,3,7,7,7,3,1,0,0,0,0,0,0,0,0,0,0,0,0,0,0,0,0,0,0,0,0,0,0,0,0,0,0,0,0 ...
;
;flash char a5[]={0,0,0,0,0,0,0,0,0,0,0,0,0,0,0,0,224,240,240,240,240,240,224,240,240,240,240,240,224,0,0,0,0,0,0,0,0,0,0 ...
;flash char b5[]={0,0,0,0,0,0,0,0,0,0,0,0,0,0,0,0,1,3,7,31,255,255,127,63,63,31,15,7,1,0,0,0,0,0,0,0,0,0,0,0,0,0,0,0,0,0, ...
;flash char c5[]={0,0,0,0,0,0,0,0,0,0,0,0,0,0,0,0,0,0,0,0,0,0,0,0,0,0,0,0,0,0,0,0,0,0,0,0,0,0,0,0,0,0,0,0,0,0,0,0,0,0,0,0 ...
;
;
;flash char a6[]={0,0,0,0,0,0,0,0,0,0,0,0,0,0,0,0,0,0,0,0,0,0,0,0,128,192,32,16,152,136,8,8,136,152,16,32,192,128,0,0,0,0 ...
;flash char b6[]={0,0,0,0,0,0,0,0,0,0,0,0,0,0,0,0,0,0,0,0,0,0,0,0,31,48,64,140,145,33,32,32,33,145,140,64,48,31,0,0,0,0,0 ...
;flash char c6[]={0,0,0,0,0,0,0,0,0,0,0,0,0,0,0,0,0,0,0,0,0,0,0,0,0,0,0,0,1,1,1,1,1,1,0,0,0,0,0,0,0,0,0,0,0,0,0,0,0,0,0,0 ...
;
;
;
;#include <mega8.h>
	#ifndef __SLEEP_DEFINED__
	#define __SLEEP_DEFINED__
	.EQU __se_bit=0x80
	.EQU __sm_mask=0x70
	.EQU __sm_powerdown=0x20
	.EQU __sm_powersave=0x30
	.EQU __sm_standby=0x60
	.EQU __sm_ext_standby=0x70
	.EQU __sm_adc_noise_red=0x10
	.SET power_ctrl_reg=mcucr
	#endif
; #include <delay.h>
; #include <sleep.h>
;char n_pic=1;
;int zdvug=0;
;char ready=0;
;int tmr_int;
;int vzdvug;
;int old_int;
;int dif_int;
;int tmr_int2;
;int tmr_line;
;int curent_line;
;int cnt_line=361;

	.DSEG
;int tmr_to_sleep=0;
;int max_line=250;
;void set_led_state(char a,char b,char c)
; 0000 0044 {

	.CSEG
_set_led_state:
; .FSTART _set_led_state
; 0000 0045     PORTC.5=!(a & 0B00000001);// 1
	ST   -Y,R26
;	a -> Y+2
;	b -> Y+1
;	c -> Y+0
	LDD  R30,Y+2
	ANDI R30,LOW(0x1)
	BREQ _0x5
	CBI  0x15,5
	RJMP _0x6
_0x5:
	SBI  0x15,5
_0x6:
; 0000 0046     PORTC.4=!(a & 0B00000010);// 2
	LDD  R30,Y+2
	ANDI R30,LOW(0x2)
	BREQ _0x7
	CBI  0x15,4
	RJMP _0x8
_0x7:
	SBI  0x15,4
_0x8:
; 0000 0047     PORTC.3=!(a & 0B00000100);// 3
	LDD  R30,Y+2
	ANDI R30,LOW(0x4)
	BREQ _0x9
	CBI  0x15,3
	RJMP _0xA
_0x9:
	SBI  0x15,3
_0xA:
; 0000 0048     PORTC.2=!(a & 0B00001000);// 4
	LDD  R30,Y+2
	ANDI R30,LOW(0x8)
	BREQ _0xB
	CBI  0x15,2
	RJMP _0xC
_0xB:
	SBI  0x15,2
_0xC:
; 0000 0049     PORTC.1=!(a & 0B00010000);// 5
	LDD  R30,Y+2
	ANDI R30,LOW(0x10)
	BREQ _0xD
	CBI  0x15,1
	RJMP _0xE
_0xD:
	SBI  0x15,1
_0xE:
; 0000 004A     PORTC.0=!(a & 0B00100000);// 6
	LDD  R30,Y+2
	ANDI R30,LOW(0x20)
	BREQ _0xF
	CBI  0x15,0
	RJMP _0x10
_0xF:
	SBI  0x15,0
_0x10:
; 0000 004B     PORTB.2=!(a & 0B01000000);// 7
	LDD  R30,Y+2
	ANDI R30,LOW(0x40)
	BREQ _0x11
	CBI  0x18,2
	RJMP _0x12
_0x11:
	SBI  0x18,2
_0x12:
; 0000 004C     PORTB.1=!(a & 0B10000000);// 8
	LDD  R30,Y+2
	ANDI R30,LOW(0x80)
	BREQ _0x13
	CBI  0x18,1
	RJMP _0x14
_0x13:
	SBI  0x18,1
_0x14:
; 0000 004D     PORTB.3=!(b & 0B00000001);// 9
	LDD  R30,Y+1
	ANDI R30,LOW(0x1)
	BREQ _0x15
	CBI  0x18,3
	RJMP _0x16
_0x15:
	SBI  0x18,3
_0x16:
; 0000 004E     PORTB.4=!(b & 0B00000010);// 10
	LDD  R30,Y+1
	ANDI R30,LOW(0x2)
	BREQ _0x17
	CBI  0x18,4
	RJMP _0x18
_0x17:
	SBI  0x18,4
_0x18:
; 0000 004F     PORTB.5=!(b & 0B00000100);// 11
	LDD  R30,Y+1
	ANDI R30,LOW(0x4)
	BREQ _0x19
	CBI  0x18,5
	RJMP _0x1A
_0x19:
	SBI  0x18,5
_0x1A:
; 0000 0050     PORTB.0=!(b & 0B00001000);// 12
	LDD  R30,Y+1
	ANDI R30,LOW(0x8)
	BREQ _0x1B
	CBI  0x18,0
	RJMP _0x1C
_0x1B:
	SBI  0x18,0
_0x1C:
; 0000 0051     PORTD.7=!(b & 0B00010000);// 13
	LDD  R30,Y+1
	ANDI R30,LOW(0x10)
	BREQ _0x1D
	CBI  0x12,7
	RJMP _0x1E
_0x1D:
	SBI  0x12,7
_0x1E:
; 0000 0052     PORTD.6=!(b & 0B00100000);// 14
	LDD  R30,Y+1
	ANDI R30,LOW(0x20)
	BREQ _0x1F
	CBI  0x12,6
	RJMP _0x20
_0x1F:
	SBI  0x12,6
_0x20:
; 0000 0053     PORTD.5=!(b & 0B01000000);// 15
	LDD  R30,Y+1
	ANDI R30,LOW(0x40)
	BREQ _0x21
	CBI  0x12,5
	RJMP _0x22
_0x21:
	SBI  0x12,5
_0x22:
; 0000 0054     PORTB.7=!(b & 0B10000000);// 16
	LDD  R30,Y+1
	ANDI R30,LOW(0x80)
	BREQ _0x23
	CBI  0x18,7
	RJMP _0x24
_0x23:
	SBI  0x18,7
_0x24:
; 0000 0055     PORTB.6=!(c & 0B00000001);// 17
	LD   R30,Y
	ANDI R30,LOW(0x1)
	BREQ _0x25
	CBI  0x18,6
	RJMP _0x26
_0x25:
	SBI  0x18,6
_0x26:
; 0000 0056     PORTD.4=!(c & 0B00000010);// 18
	LD   R30,Y
	ANDI R30,LOW(0x2)
	BREQ _0x27
	CBI  0x12,4
	RJMP _0x28
_0x27:
	SBI  0x12,4
_0x28:
; 0000 0057     PORTD.1=!(c & 0B00000100);// 19
	LD   R30,Y
	ANDI R30,LOW(0x4)
	BREQ _0x29
	CBI  0x12,1
	RJMP _0x2A
_0x29:
	SBI  0x12,1
_0x2A:
; 0000 0058     PORTD.0=!(c & 0B00001000);// 20
	LD   R30,Y
	ANDI R30,LOW(0x8)
	BREQ _0x2B
	CBI  0x12,0
	RJMP _0x2C
_0x2B:
	SBI  0x12,0
_0x2C:
; 0000 0059 
; 0000 005A }
	ADIW R28,3
	RET
; .FEND
;// External Interrupt 0 service routine
;interrupt [EXT_INT0] void ext_int0_isr(void)
; 0000 005D {
_ext_int0_isr:
; .FSTART _ext_int0_isr
	RCALL SUBOPT_0x0
; 0000 005E sleep_disable();
	RCALL _sleep_disable
; 0000 005F MCUCR=0x00;
	LDI  R30,LOW(0)
	OUT  0x35,R30
; 0000 0060 
; 0000 0061 
; 0000 0062     tmr_int2 = TCNT1L | TCNT1H << 8;
	RCALL SUBOPT_0x1
	STS  _tmr_int2,R30
	STS  _tmr_int2+1,R31
; 0000 0063     TCNT1H=0x00;
	RCALL SUBOPT_0x2
; 0000 0064     TCNT1L=0x00;
; 0000 0065    PORTB=255;
	RCALL SUBOPT_0x3
; 0000 0066    PORTC=255;
; 0000 0067    PORTD=255;
; 0000 0068    ready=0;
	CLR  R4
; 0000 0069     if (tmr_int2>1000)
	LDS  R26,_tmr_int2
	LDS  R27,_tmr_int2+1
	CPI  R26,LOW(0x3E9)
	LDI  R30,HIGH(0x3E9)
	CPC  R27,R30
	BRGE PC+2
	RJMP _0x2D
; 0000 006A     {
; 0000 006B         dif_int=tmr_int2-old_int;
	RCALL SUBOPT_0x4
	SUB  R30,R12
	SBC  R31,R13
	STS  _dif_int,R30
	STS  _dif_int+1,R31
; 0000 006C         old_int=tmr_int2;
	__GETWRMN 12,13,0,_tmr_int2
; 0000 006D         zdvug=zdvug+2;
	MOVW R30,R6
	ADIW R30,2
	MOVW R6,R30
; 0000 006E 
; 0000 006F         if (zdvug>max_line)
	RCALL SUBOPT_0x5
	CP   R30,R6
	CPC  R31,R7
	BRGE _0x2E
; 0000 0070         {
; 0000 0071             zdvug=0;
	CLR  R6
	CLR  R7
; 0000 0072             n_pic++;
	INC  R5
; 0000 0073             if (n_pic==7){n_pic=1;}
	LDI  R30,LOW(7)
	CP   R30,R5
	BRNE _0x2F
	LDI  R30,LOW(1)
	MOV  R5,R30
; 0000 0074         }
_0x2F:
; 0000 0075         vzdvug=zdvug/30;
_0x2E:
	MOVW R26,R6
	LDI  R30,LOW(30)
	LDI  R31,HIGH(30)
	RCALL __DIVW21
	MOVW R10,R30
; 0000 0076         vzdvug=vzdvug*30;
	LDI  R26,LOW(30)
	LDI  R27,HIGH(30)
	RCALL __MULW12
	MOVW R10,R30
; 0000 0077         tmr_line=(tmr_int2-dif_int)/max_line;
	LDS  R26,_dif_int
	LDS  R27,_dif_int+1
	RCALL SUBOPT_0x4
	SUB  R30,R26
	SBC  R31,R27
	MOVW R26,R30
	RCALL SUBOPT_0x5
	RCALL __DIVW21
	STS  _tmr_line,R30
	STS  _tmr_line+1,R31
; 0000 0078         if (tmr_to_sleep<1)
	RCALL SUBOPT_0x6
	BRGE _0x30
; 0000 0079         {
; 0000 007A             curent_line=vzdvug;
	__PUTWMRN _curent_line,0,10,11
; 0000 007B             //curent_line=0;
; 0000 007C             cnt_line=0;
	LDI  R30,LOW(0)
	STS  _cnt_line,R30
	STS  _cnt_line+1,R30
; 0000 007D         }
; 0000 007E         tmr_to_sleep=0;
_0x30:
	LDI  R30,LOW(0)
	STS  _tmr_to_sleep,R30
	STS  _tmr_to_sleep+1,R30
; 0000 007F     }
; 0000 0080 
; 0000 0081 }
_0x2D:
	RJMP _0x46
; .FEND
;
;// External Interrupt 1 service routine
;interrupt [EXT_INT1] void ext_int1_isr(void)
; 0000 0085 {
_ext_int1_isr:
; .FSTART _ext_int1_isr
	RCALL SUBOPT_0x0
; 0000 0086 // Place your code here
; 0000 0087 n_pic++;
	INC  R5
; 0000 0088 if (n_pic==7){n_pic=1;}
	LDI  R30,LOW(7)
	CP   R30,R5
	BRNE _0x31
	LDI  R30,LOW(1)
	MOV  R5,R30
; 0000 0089 delay_ms(100);
_0x31:
	RCALL SUBOPT_0x7
; 0000 008A set_led_state(n_pic,0,0);
	RCALL SUBOPT_0x8
; 0000 008B delay_ms(100);
; 0000 008C set_led_state(0,0,0);
	RCALL SUBOPT_0x9
	RCALL SUBOPT_0x9
	RCALL SUBOPT_0xA
; 0000 008D delay_ms(100);
	RCALL SUBOPT_0x7
; 0000 008E set_led_state(n_pic,0,0);
	RCALL SUBOPT_0x8
; 0000 008F delay_ms(100);
; 0000 0090 set_led_state(0,0,0);
	RCALL SUBOPT_0x9
	RCALL SUBOPT_0x9
	RCALL SUBOPT_0xA
; 0000 0091 }
	RJMP _0x46
; .FEND
;
;
;
;// Timer1 overflow interrupt service routine
;interrupt [TIM1_OVF] void timer1_ovf_isr(void)
; 0000 0097 {
_timer1_ovf_isr:
; .FSTART _timer1_ovf_isr
	RCALL SUBOPT_0x0
; 0000 0098 tmr_to_sleep++;
	LDI  R26,LOW(_tmr_to_sleep)
	LDI  R27,HIGH(_tmr_to_sleep)
	RCALL SUBOPT_0xB
; 0000 0099 if (tmr_to_sleep==1) {set_led_state(255,0,0);}
	RCALL SUBOPT_0x6
	BRNE _0x32
	RCALL SUBOPT_0xC
	RCALL SUBOPT_0x9
	RCALL SUBOPT_0xA
; 0000 009A if (tmr_to_sleep==2) {set_led_state(255,255,0);}
_0x32:
	RCALL SUBOPT_0xD
	SBIW R26,2
	BRNE _0x33
	RCALL SUBOPT_0xC
	RCALL SUBOPT_0xC
	RCALL SUBOPT_0xA
; 0000 009B if (tmr_to_sleep==3) {set_led_state(255,255,255);}
_0x33:
	RCALL SUBOPT_0xD
	SBIW R26,3
	BRNE _0x34
	RCALL SUBOPT_0xC
	RCALL SUBOPT_0xC
	RCALL SUBOPT_0xE
; 0000 009C delay_ms(300);
_0x34:
	LDI  R26,LOW(300)
	LDI  R27,HIGH(300)
	RCALL _delay_ms
; 0000 009D if (tmr_to_sleep>3){
	RCALL SUBOPT_0xD
	SBIW R26,4
	BRLT _0x35
; 0000 009E 
; 0000 009F // Place your code here
; 0000 00A0    set_led_state(255,255,255);
	RCALL SUBOPT_0xC
	RCALL SUBOPT_0xC
	RCALL SUBOPT_0xE
; 0000 00A1    delay_ms(50);
	RCALL SUBOPT_0xF
; 0000 00A2    set_led_state(0,0,0);;
	RCALL SUBOPT_0x9
	RCALL SUBOPT_0x9
	RCALL SUBOPT_0xA
; 0000 00A3    delay_ms(50);
	RCALL SUBOPT_0xF
; 0000 00A4       set_led_state(255,255,255);
	RCALL SUBOPT_0xC
	RCALL SUBOPT_0xC
	RCALL SUBOPT_0xE
; 0000 00A5    delay_ms(50);
	RCALL SUBOPT_0xF
; 0000 00A6    set_led_state(0,0,0);
	RCALL SUBOPT_0x9
	RCALL SUBOPT_0x9
	RCALL SUBOPT_0xA
; 0000 00A7    delay_ms(50);
	RCALL SUBOPT_0xF
; 0000 00A8       set_led_state(255,255,255);
	RCALL SUBOPT_0xC
	RCALL SUBOPT_0xC
	RCALL SUBOPT_0xE
; 0000 00A9    delay_ms(50);
	RCALL SUBOPT_0xF
; 0000 00AA    set_led_state(0,0,0);
	RCALL SUBOPT_0x9
	RCALL SUBOPT_0x9
	RCALL SUBOPT_0xA
; 0000 00AB    delay_ms(50);
	RCALL SUBOPT_0xF
; 0000 00AC    PORTB=255;
	RCALL SUBOPT_0x3
; 0000 00AD    PORTC=255;
; 0000 00AE    PORTD=255;
; 0000 00AF sleep_enable(); //Ðàçðåøåíèå íà ñïÿùèé ðåæèì
	RCALL _sleep_enable
; 0000 00B0 //idle();
; 0000 00B1 powerdown(); //Ñàìûé ýêîíîìíûé ðåæèì ýíåðãîñáåðåæåíèÿ
	RCALL _powerdown
; 0000 00B2 #asm("sleep"); //Îòïðàâëÿåì êîíòðîëëåð â ñïÿùèé ðåæèì
	sleep
; 0000 00B3 }
; 0000 00B4 }
_0x35:
_0x46:
	LD   R30,Y+
	OUT  SREG,R30
	LD   R31,Y+
	LD   R30,Y+
	LD   R27,Y+
	LD   R26,Y+
	LD   R25,Y+
	LD   R24,Y+
	LD   R23,Y+
	LD   R22,Y+
	LD   R15,Y+
	LD   R1,Y+
	LD   R0,Y+
	RETI
; .FEND
;
;// Declare your global variables here
;
;void main(void)
; 0000 00B9 {
_main:
; .FSTART _main
; 0000 00BA // Declare your local variables here
; 0000 00BB 
; 0000 00BC // Input/Output Ports initialization
; 0000 00BD // Port B initialization
; 0000 00BE // Func7=Out Func6=Out Func5=Out Func4=Out Func3=Out Func2=Out Func1=Out Func0=Out
; 0000 00BF // State7=0 State6=0 State5=0 State4=0 State3=0 State2=0 State1=0 State0=0
; 0000 00C0 PORTB=0x00;
	LDI  R30,LOW(0)
	OUT  0x18,R30
; 0000 00C1 DDRB=0xFF;
	LDI  R30,LOW(255)
	OUT  0x17,R30
; 0000 00C2 
; 0000 00C3 // Port C initialization
; 0000 00C4 // Func6=Out Func5=Out Func4=Out Func3=Out Func2=Out Func1=Out Func0=Out
; 0000 00C5 // State6=0 State5=0 State4=0 State3=0 State2=0 State1=0 State0=0
; 0000 00C6 PORTC=0x00;
	LDI  R30,LOW(0)
	OUT  0x15,R30
; 0000 00C7 DDRC=0x7F;
	LDI  R30,LOW(127)
	OUT  0x14,R30
; 0000 00C8 
; 0000 00C9 // Port D initialization
; 0000 00CA // Func7=Out Func6=Out Func5=Out Func4=Out Func3=In Func2=In Func1=Out Func0=Out
; 0000 00CB // State7=0 State6=0 State5=0 State4=0 State3=T State2=T State1=0 State0=0
; 0000 00CC PORTD=0x00;
	LDI  R30,LOW(0)
	OUT  0x12,R30
; 0000 00CD DDRD=0xF3;
	LDI  R30,LOW(243)
	OUT  0x11,R30
; 0000 00CE 
; 0000 00CF // Timer/Counter 0 initialization
; 0000 00D0 // Clock source: System Clock
; 0000 00D1 // Clock value: Timer 0 Stopped
; 0000 00D2 TCCR0=0x00;
	LDI  R30,LOW(0)
	OUT  0x33,R30
; 0000 00D3 TCNT0=0x00;
	OUT  0x32,R30
; 0000 00D4 
; 0000 00D5 
; 0000 00D6 // Timer/Counter 1 initialization
; 0000 00D7 // Clock source: System Clock
; 0000 00D8 // Clock value: 125,000 kHz
; 0000 00D9 // Mode: Normal top=0xFFFF
; 0000 00DA // OC1A output: Discon.
; 0000 00DB // OC1B output: Discon.
; 0000 00DC // Noise Canceler: Off
; 0000 00DD // Input Capture on Falling Edge
; 0000 00DE // Timer1 Overflow Interrupt: On
; 0000 00DF // Input Capture Interrupt: Off
; 0000 00E0 // Compare A Match Interrupt: Off
; 0000 00E1 // Compare B Match Interrupt: Off
; 0000 00E2 TCCR1A=0x00;
	OUT  0x2F,R30
; 0000 00E3 TCCR1B=0x04;
	LDI  R30,LOW(4)
	OUT  0x2E,R30
; 0000 00E4 TCNT1H=0x00;
	RCALL SUBOPT_0x2
; 0000 00E5 TCNT1L=0x00;
; 0000 00E6 ICR1H=0x00;
	LDI  R30,LOW(0)
	OUT  0x27,R30
; 0000 00E7 ICR1L=0x00;
	OUT  0x26,R30
; 0000 00E8 OCR1AH=0x00;
	OUT  0x2B,R30
; 0000 00E9 OCR1AL=0x00;
	OUT  0x2A,R30
; 0000 00EA OCR1BH=0x00;
	OUT  0x29,R30
; 0000 00EB OCR1BL=0x00;
	OUT  0x28,R30
; 0000 00EC 
; 0000 00ED // Timer/Counter 2 initialization
; 0000 00EE // Clock source: System Clock
; 0000 00EF // Clock value: Timer2 Stopped
; 0000 00F0 // Mode: Normal top=0xFF
; 0000 00F1 // OC2 output: Disconnected
; 0000 00F2 ASSR=0x00;
	OUT  0x22,R30
; 0000 00F3 TCCR2=0x00;
	OUT  0x25,R30
; 0000 00F4 TCNT2=0x00;
	OUT  0x24,R30
; 0000 00F5 OCR2=0x00;
	OUT  0x23,R30
; 0000 00F6 
; 0000 00F7 // External Interrupt(s) initialization
; 0000 00F8 // INT0: On
; 0000 00F9 // INT0 Mode: Low level
; 0000 00FA // INT1: On
; 0000 00FB // INT1 Mode: Low level
; 0000 00FC GICR|=0xC0;
	IN   R30,0x3B
	ORI  R30,LOW(0xC0)
	OUT  0x3B,R30
; 0000 00FD MCUCR=0x00;
	LDI  R30,LOW(0)
	OUT  0x35,R30
; 0000 00FE GIFR=0xC0;
	LDI  R30,LOW(192)
	OUT  0x3A,R30
; 0000 00FF 
; 0000 0100 // Timer(s)/Counter(s) Interrupt(s) initialization
; 0000 0101 TIMSK=0x04;
	LDI  R30,LOW(4)
	OUT  0x39,R30
; 0000 0102 
; 0000 0103 // USART initialization
; 0000 0104 // USART disabled
; 0000 0105 UCSRB=0x00;
	LDI  R30,LOW(0)
	OUT  0xA,R30
; 0000 0106 
; 0000 0107 // Analog Comparator initialization
; 0000 0108 // Analog Comparator: Off
; 0000 0109 // Analog Comparator Input Capture by Timer/Counter 1: Off
; 0000 010A ACSR=0x80;
	LDI  R30,LOW(128)
	OUT  0x8,R30
; 0000 010B SFIOR=0x00;
	LDI  R30,LOW(0)
	OUT  0x30,R30
; 0000 010C 
; 0000 010D // ADC initialization
; 0000 010E // ADC disabled
; 0000 010F ADCSRA=0x00;
	OUT  0x6,R30
; 0000 0110 
; 0000 0111 // SPI initialization
; 0000 0112 // SPI disabled
; 0000 0113 SPCR=0x00;
	OUT  0xD,R30
; 0000 0114 
; 0000 0115 // TWI initialization
; 0000 0116 // TWI disabled
; 0000 0117 TWCR=0x00;
	OUT  0x36,R30
; 0000 0118 
; 0000 0119 // Global enable interrupts
; 0000 011A #asm("sei")
	sei
; 0000 011B 
; 0000 011C while (1)
_0x36:
; 0000 011D       {
; 0000 011E       // Place your code here
; 0000 011F 
; 0000 0120           if(cnt_line<max_line && ready==1)
	RCALL SUBOPT_0x5
	LDS  R26,_cnt_line
	LDS  R27,_cnt_line+1
	CP   R26,R30
	CPC  R27,R31
	BRGE _0x3A
	LDI  R30,LOW(1)
	CP   R30,R4
	BREQ _0x3B
_0x3A:
	RJMP _0x39
_0x3B:
; 0000 0121           {
; 0000 0122               tmr_int = TCNT1L | TCNT1H << 8;
	RCALL SUBOPT_0x1
	MOVW R8,R30
; 0000 0123               if(tmr_int>tmr_line*cnt_line)
	LDS  R30,_cnt_line
	LDS  R31,_cnt_line+1
	LDS  R26,_tmr_line
	LDS  R27,_tmr_line+1
	RCALL __MULW12
	CP   R30,R8
	CPC  R31,R9
	BRLT PC+2
	RJMP _0x3C
; 0000 0124               {
; 0000 0125 //                curent_line--;
; 0000 0126 //                cnt_line++;
; 0000 0127 //                if (curent_line<1) {curent_line=max_line;}
; 0000 0128                 curent_line++;
	LDI  R26,LOW(_curent_line)
	LDI  R27,HIGH(_curent_line)
	RCALL SUBOPT_0xB
; 0000 0129                 cnt_line++;
	LDI  R26,LOW(_cnt_line)
	LDI  R27,HIGH(_cnt_line)
	RCALL SUBOPT_0xB
; 0000 012A                 if (curent_line==max_line) {curent_line=0;}
	RCALL SUBOPT_0x5
	LDS  R26,_curent_line
	LDS  R27,_curent_line+1
	CP   R30,R26
	CPC  R31,R27
	BRNE _0x3D
	LDI  R30,LOW(0)
	STS  _curent_line,R30
	STS  _curent_line+1,R30
; 0000 012B                 if (n_pic==1){set_led_state(a[curent_line],b[curent_line],c[curent_line]);}
_0x3D:
	LDI  R30,LOW(1)
	CP   R30,R5
	BRNE _0x3E
	RCALL SUBOPT_0x10
	SUBI R30,LOW(-_a*2)
	SBCI R31,HIGH(-_a*2)
	RCALL SUBOPT_0x11
	SUBI R30,LOW(-_b*2)
	SBCI R31,HIGH(-_b*2)
	RCALL SUBOPT_0x11
	SUBI R30,LOW(-_c*2)
	SBCI R31,HIGH(-_c*2)
	RCALL SUBOPT_0x12
; 0000 012C                 if (n_pic==2){set_led_state(a2[curent_line],b2[curent_line],c2[curent_line]);}
_0x3E:
	LDI  R30,LOW(2)
	CP   R30,R5
	BRNE _0x3F
	RCALL SUBOPT_0x10
	SUBI R30,LOW(-_a2*2)
	SBCI R31,HIGH(-_a2*2)
	RCALL SUBOPT_0x11
	SUBI R30,LOW(-_b2*2)
	SBCI R31,HIGH(-_b2*2)
	RCALL SUBOPT_0x11
	SUBI R30,LOW(-_c2*2)
	SBCI R31,HIGH(-_c2*2)
	RCALL SUBOPT_0x12
; 0000 012D                 if (n_pic==3){set_led_state(a3[curent_line],b3[curent_line],c3[curent_line]);}
_0x3F:
	LDI  R30,LOW(3)
	CP   R30,R5
	BRNE _0x40
	RCALL SUBOPT_0x10
	SUBI R30,LOW(-_a3*2)
	SBCI R31,HIGH(-_a3*2)
	RCALL SUBOPT_0x11
	SUBI R30,LOW(-_b3*2)
	SBCI R31,HIGH(-_b3*2)
	RCALL SUBOPT_0x11
	SUBI R30,LOW(-_c3*2)
	SBCI R31,HIGH(-_c3*2)
	RCALL SUBOPT_0x12
; 0000 012E                 if (n_pic==4){set_led_state(a4[curent_line],b4[curent_line],c4[curent_line]);}
_0x40:
	LDI  R30,LOW(4)
	CP   R30,R5
	BRNE _0x41
	RCALL SUBOPT_0x10
	SUBI R30,LOW(-_a4*2)
	SBCI R31,HIGH(-_a4*2)
	RCALL SUBOPT_0x11
	SUBI R30,LOW(-_b4*2)
	SBCI R31,HIGH(-_b4*2)
	RCALL SUBOPT_0x11
	SUBI R30,LOW(-_c4*2)
	SBCI R31,HIGH(-_c4*2)
	RCALL SUBOPT_0x12
; 0000 012F                 if (n_pic==5){set_led_state(a5[curent_line],b5[curent_line],c5[curent_line]);}
_0x41:
	LDI  R30,LOW(5)
	CP   R30,R5
	BRNE _0x42
	RCALL SUBOPT_0x10
	SUBI R30,LOW(-_a5*2)
	SBCI R31,HIGH(-_a5*2)
	RCALL SUBOPT_0x11
	SUBI R30,LOW(-_b5*2)
	SBCI R31,HIGH(-_b5*2)
	RCALL SUBOPT_0x11
	SUBI R30,LOW(-_c5*2)
	SBCI R31,HIGH(-_c5*2)
	RCALL SUBOPT_0x12
; 0000 0130                 if (n_pic==6){set_led_state(a6[curent_line],b6[curent_line],c6[curent_line]);}
_0x42:
	LDI  R30,LOW(6)
	CP   R30,R5
	BRNE _0x43
	RCALL SUBOPT_0x10
	SUBI R30,LOW(-_a6*2)
	SBCI R31,HIGH(-_a6*2)
	RCALL SUBOPT_0x11
	SUBI R30,LOW(-_b6*2)
	SBCI R31,HIGH(-_b6*2)
	RCALL SUBOPT_0x11
	SUBI R30,LOW(-_c6*2)
	SBCI R31,HIGH(-_c6*2)
	RCALL SUBOPT_0x12
; 0000 0131               }
_0x43:
; 0000 0132           }
_0x3C:
; 0000 0133               else
	RJMP _0x44
_0x39:
; 0000 0134               {
; 0000 0135                set_led_state(0,0,0);
	RCALL SUBOPT_0x9
	RCALL SUBOPT_0x9
	RCALL SUBOPT_0xA
; 0000 0136               }
_0x44:
; 0000 0137         ready=1;
	LDI  R30,LOW(1)
	MOV  R4,R30
; 0000 0138       }
	RJMP _0x36
; 0000 0139 }
_0x45:
	RJMP _0x45
; .FEND
	#ifndef __SLEEP_DEFINED__
	#define __SLEEP_DEFINED__
	.EQU __se_bit=0x80
	.EQU __sm_mask=0x70
	.EQU __sm_powerdown=0x20
	.EQU __sm_powersave=0x30
	.EQU __sm_standby=0x60
	.EQU __sm_ext_standby=0x70
	.EQU __sm_adc_noise_red=0x10
	.SET power_ctrl_reg=mcucr
	#endif

	.CSEG
_sleep_enable:
; .FSTART _sleep_enable
   in   r30,power_ctrl_reg
   sbr  r30,__se_bit
   out  power_ctrl_reg,r30
	RET
; .FEND
_sleep_disable:
; .FSTART _sleep_disable
   in   r30,power_ctrl_reg
   cbr  r30,__se_bit
   out  power_ctrl_reg,r30
	RET
; .FEND
_powerdown:
; .FSTART _powerdown
   in   r30,power_ctrl_reg
   cbr  r30,__sm_mask
   sbr  r30,__sm_powerdown
   out  power_ctrl_reg,r30
   in   r30,sreg
   sei
   sleep
   out  sreg,r30
	RET
; .FEND

	.DSEG
_dif_int:
	.BYTE 0x2
_tmr_int2:
	.BYTE 0x2
_tmr_line:
	.BYTE 0x2
_curent_line:
	.BYTE 0x2
_cnt_line:
	.BYTE 0x2
_tmr_to_sleep:
	.BYTE 0x2
_max_line:
	.BYTE 0x2

	.CSEG
;OPTIMIZER ADDED SUBROUTINE, CALLED 3 TIMES, CODE SIZE REDUCTION:22 WORDS
SUBOPT_0x0:
	ST   -Y,R0
	ST   -Y,R1
	ST   -Y,R15
	ST   -Y,R22
	ST   -Y,R23
	ST   -Y,R24
	ST   -Y,R25
	ST   -Y,R26
	ST   -Y,R27
	ST   -Y,R30
	ST   -Y,R31
	IN   R30,SREG
	ST   -Y,R30
	RET

;OPTIMIZER ADDED SUBROUTINE, CALLED 2 TIMES, CODE SIZE REDUCTION:3 WORDS
SUBOPT_0x1:
	IN   R30,0x2C
	MOV  R26,R30
	IN   R30,0x2D
	MOV  R31,R30
	LDI  R30,0
	OR   R30,R26
	RET

;OPTIMIZER ADDED SUBROUTINE, CALLED 2 TIMES, CODE SIZE REDUCTION:1 WORDS
SUBOPT_0x2:
	LDI  R30,LOW(0)
	OUT  0x2D,R30
	OUT  0x2C,R30
	RET

;OPTIMIZER ADDED SUBROUTINE, CALLED 2 TIMES, CODE SIZE REDUCTION:3 WORDS
SUBOPT_0x3:
	LDI  R30,LOW(255)
	OUT  0x18,R30
	OUT  0x15,R30
	OUT  0x12,R30
	RET

;OPTIMIZER ADDED SUBROUTINE, CALLED 2 TIMES, CODE SIZE REDUCTION:1 WORDS
SUBOPT_0x4:
	LDS  R30,_tmr_int2
	LDS  R31,_tmr_int2+1
	RET

;OPTIMIZER ADDED SUBROUTINE, CALLED 4 TIMES, CODE SIZE REDUCTION:7 WORDS
SUBOPT_0x5:
	LDS  R30,_max_line
	LDS  R31,_max_line+1
	RET

;OPTIMIZER ADDED SUBROUTINE, CALLED 2 TIMES, CODE SIZE REDUCTION:2 WORDS
SUBOPT_0x6:
	LDS  R26,_tmr_to_sleep
	LDS  R27,_tmr_to_sleep+1
	SBIW R26,1
	RET

;OPTIMIZER ADDED SUBROUTINE, CALLED 4 TIMES, CODE SIZE REDUCTION:4 WORDS
SUBOPT_0x7:
	LDI  R26,LOW(100)
	LDI  R27,0
	RJMP _delay_ms

;OPTIMIZER ADDED SUBROUTINE, CALLED 2 TIMES, CODE SIZE REDUCTION:3 WORDS
SUBOPT_0x8:
	ST   -Y,R5
	LDI  R30,LOW(0)
	ST   -Y,R30
	LDI  R26,LOW(0)
	RCALL _set_led_state
	RJMP SUBOPT_0x7

;OPTIMIZER ADDED SUBROUTINE, CALLED 13 TIMES, CODE SIZE REDUCTION:10 WORDS
SUBOPT_0x9:
	LDI  R30,LOW(0)
	ST   -Y,R30
	RET

;OPTIMIZER ADDED SUBROUTINE, CALLED 8 TIMES, CODE SIZE REDUCTION:5 WORDS
SUBOPT_0xA:
	LDI  R26,LOW(0)
	RJMP _set_led_state

;OPTIMIZER ADDED SUBROUTINE, CALLED 3 TIMES, CODE SIZE REDUCTION:6 WORDS
SUBOPT_0xB:
	LD   R30,X+
	LD   R31,X+
	ADIW R30,1
	ST   -X,R31
	ST   -X,R30
	RET

;OPTIMIZER ADDED SUBROUTINE, CALLED 11 TIMES, CODE SIZE REDUCTION:8 WORDS
SUBOPT_0xC:
	LDI  R30,LOW(255)
	ST   -Y,R30
	RET

;OPTIMIZER ADDED SUBROUTINE, CALLED 3 TIMES, CODE SIZE REDUCTION:4 WORDS
SUBOPT_0xD:
	LDS  R26,_tmr_to_sleep
	LDS  R27,_tmr_to_sleep+1
	RET

;OPTIMIZER ADDED SUBROUTINE, CALLED 4 TIMES, CODE SIZE REDUCTION:1 WORDS
SUBOPT_0xE:
	LDI  R26,LOW(255)
	RJMP _set_led_state

;OPTIMIZER ADDED SUBROUTINE, CALLED 6 TIMES, CODE SIZE REDUCTION:8 WORDS
SUBOPT_0xF:
	LDI  R26,LOW(50)
	LDI  R27,0
	RJMP _delay_ms

;OPTIMIZER ADDED SUBROUTINE, CALLED 18 TIMES, CODE SIZE REDUCTION:49 WORDS
SUBOPT_0x10:
	LDS  R30,_curent_line
	LDS  R31,_curent_line+1
	RET

;OPTIMIZER ADDED SUBROUTINE, CALLED 12 TIMES, CODE SIZE REDUCTION:20 WORDS
SUBOPT_0x11:
	LPM  R30,Z
	ST   -Y,R30
	RJMP SUBOPT_0x10

;OPTIMIZER ADDED SUBROUTINE, CALLED 6 TIMES, CODE SIZE REDUCTION:3 WORDS
SUBOPT_0x12:
	LPM  R26,Z
	RJMP _set_led_state


	.CSEG
_delay_ms:
	adiw r26,0
	breq __delay_ms1
__delay_ms0:
	__DELAY_USW 0x7D0
	wdr
	sbiw r26,1
	brne __delay_ms0
__delay_ms1:
	ret

__ANEGW1:
	NEG  R31
	NEG  R30
	SBCI R31,0
	RET

__MULW12U:
	MUL  R31,R26
	MOV  R31,R0
	MUL  R30,R27
	ADD  R31,R0
	MUL  R30,R26
	MOV  R30,R0
	ADD  R31,R1
	RET

__MULW12:
	RCALL __CHKSIGNW
	RCALL __MULW12U
	BRTC __MULW121
	RCALL __ANEGW1
__MULW121:
	RET

__DIVW21U:
	CLR  R0
	CLR  R1
	LDI  R25,16
__DIVW21U1:
	LSL  R26
	ROL  R27
	ROL  R0
	ROL  R1
	SUB  R0,R30
	SBC  R1,R31
	BRCC __DIVW21U2
	ADD  R0,R30
	ADC  R1,R31
	RJMP __DIVW21U3
__DIVW21U2:
	SBR  R26,1
__DIVW21U3:
	DEC  R25
	BRNE __DIVW21U1
	MOVW R30,R26
	MOVW R26,R0
	RET

__DIVW21:
	RCALL __CHKSIGNW
	RCALL __DIVW21U
	BRTC __DIVW211
	RCALL __ANEGW1
__DIVW211:
	RET

__CHKSIGNW:
	CLT
	SBRS R31,7
	RJMP __CHKSW1
	RCALL __ANEGW1
	SET
__CHKSW1:
	SBRS R27,7
	RJMP __CHKSW2
	COM  R26
	COM  R27
	ADIW R26,1
	BLD  R0,0
	INC  R0
	BST  R0,0
__CHKSW2:
	RET

;END OF CODE MARKER
__END_OF_CODE:
