
;CodeVisionAVR C Compiler V3.12 Advanced
;(C) Copyright 1998-2014 Pavel Haiduc, HP InfoTech s.r.l.
;http://www.hpinfotech.com

;Build configuration    : Release
;Chip type              : ATmega8
;Program type           : Application
;Clock frequency        : 8,000000 MHz
;Memory model           : Small
;Optimize for           : Size
;(s)printf features     : int, width
;(s)scanf features      : int, width
;External RAM size      : 0
;Data Stack size        : 256 byte(s)
;Heap size              : 0 byte(s)
;Promote 'char' to 'int': Yes
;'char' is unsigned     : Yes
;8 bit enums            : Yes
;Global 'const' stored in FLASH: No
;Enhanced function parameter passing: Yes
;Enhanced core instructions: On
;Automatic register allocation for global variables: On
;Smart register allocation: On

	#define _MODEL_SMALL_

	#pragma AVRPART ADMIN PART_NAME ATmega8
	#pragma AVRPART MEMORY PROG_FLASH 8192
	#pragma AVRPART MEMORY EEPROM 512
	#pragma AVRPART MEMORY INT_SRAM SIZE 1024
	#pragma AVRPART MEMORY INT_SRAM START_ADDR 0x60

	.LISTMAC
	.EQU UDRE=0x5
	.EQU RXC=0x7
	.EQU USR=0xB
	.EQU UDR=0xC
	.EQU SPSR=0xE
	.EQU SPDR=0xF
	.EQU EERE=0x0
	.EQU EEWE=0x1
	.EQU EEMWE=0x2
	.EQU EECR=0x1C
	.EQU EEDR=0x1D
	.EQU EEARL=0x1E
	.EQU EEARH=0x1F
	.EQU WDTCR=0x21
	.EQU MCUCR=0x35
	.EQU GICR=0x3B
	.EQU SPL=0x3D
	.EQU SPH=0x3E
	.EQU SREG=0x3F

	.DEF R0X0=R0
	.DEF R0X1=R1
	.DEF R0X2=R2
	.DEF R0X3=R3
	.DEF R0X4=R4
	.DEF R0X5=R5
	.DEF R0X6=R6
	.DEF R0X7=R7
	.DEF R0X8=R8
	.DEF R0X9=R9
	.DEF R0XA=R10
	.DEF R0XB=R11
	.DEF R0XC=R12
	.DEF R0XD=R13
	.DEF R0XE=R14
	.DEF R0XF=R15
	.DEF R0X10=R16
	.DEF R0X11=R17
	.DEF R0X12=R18
	.DEF R0X13=R19
	.DEF R0X14=R20
	.DEF R0X15=R21
	.DEF R0X16=R22
	.DEF R0X17=R23
	.DEF R0X18=R24
	.DEF R0X19=R25
	.DEF R0X1A=R26
	.DEF R0X1B=R27
	.DEF R0X1C=R28
	.DEF R0X1D=R29
	.DEF R0X1E=R30
	.DEF R0X1F=R31

	.EQU __SRAM_START=0x0060
	.EQU __SRAM_END=0x045F
	.EQU __DSTACK_SIZE=0x0100
	.EQU __HEAP_SIZE=0x0000
	.EQU __CLEAR_SRAM_SIZE=__SRAM_END-__SRAM_START+1

	.MACRO __CPD1N
	CPI  R30,LOW(@0)
	LDI  R26,HIGH(@0)
	CPC  R31,R26
	LDI  R26,BYTE3(@0)
	CPC  R22,R26
	LDI  R26,BYTE4(@0)
	CPC  R23,R26
	.ENDM

	.MACRO __CPD2N
	CPI  R26,LOW(@0)
	LDI  R30,HIGH(@0)
	CPC  R27,R30
	LDI  R30,BYTE3(@0)
	CPC  R24,R30
	LDI  R30,BYTE4(@0)
	CPC  R25,R30
	.ENDM

	.MACRO __CPWRR
	CP   R@0,R@2
	CPC  R@1,R@3
	.ENDM

	.MACRO __CPWRN
	CPI  R@0,LOW(@2)
	LDI  R30,HIGH(@2)
	CPC  R@1,R30
	.ENDM

	.MACRO __ADDB1MN
	SUBI R30,LOW(-@0-(@1))
	.ENDM

	.MACRO __ADDB2MN
	SUBI R26,LOW(-@0-(@1))
	.ENDM

	.MACRO __ADDW1MN
	SUBI R30,LOW(-@0-(@1))
	SBCI R31,HIGH(-@0-(@1))
	.ENDM

	.MACRO __ADDW2MN
	SUBI R26,LOW(-@0-(@1))
	SBCI R27,HIGH(-@0-(@1))
	.ENDM

	.MACRO __ADDW1FN
	SUBI R30,LOW(-2*@0-(@1))
	SBCI R31,HIGH(-2*@0-(@1))
	.ENDM

	.MACRO __ADDD1FN
	SUBI R30,LOW(-2*@0-(@1))
	SBCI R31,HIGH(-2*@0-(@1))
	SBCI R22,BYTE3(-2*@0-(@1))
	.ENDM

	.MACRO __ADDD1N
	SUBI R30,LOW(-@0)
	SBCI R31,HIGH(-@0)
	SBCI R22,BYTE3(-@0)
	SBCI R23,BYTE4(-@0)
	.ENDM

	.MACRO __ADDD2N
	SUBI R26,LOW(-@0)
	SBCI R27,HIGH(-@0)
	SBCI R24,BYTE3(-@0)
	SBCI R25,BYTE4(-@0)
	.ENDM

	.MACRO __SUBD1N
	SUBI R30,LOW(@0)
	SBCI R31,HIGH(@0)
	SBCI R22,BYTE3(@0)
	SBCI R23,BYTE4(@0)
	.ENDM

	.MACRO __SUBD2N
	SUBI R26,LOW(@0)
	SBCI R27,HIGH(@0)
	SBCI R24,BYTE3(@0)
	SBCI R25,BYTE4(@0)
	.ENDM

	.MACRO __ANDBMNN
	LDS  R30,@0+(@1)
	ANDI R30,LOW(@2)
	STS  @0+(@1),R30
	.ENDM

	.MACRO __ANDWMNN
	LDS  R30,@0+(@1)
	ANDI R30,LOW(@2)
	STS  @0+(@1),R30
	LDS  R30,@0+(@1)+1
	ANDI R30,HIGH(@2)
	STS  @0+(@1)+1,R30
	.ENDM

	.MACRO __ANDD1N
	ANDI R30,LOW(@0)
	ANDI R31,HIGH(@0)
	ANDI R22,BYTE3(@0)
	ANDI R23,BYTE4(@0)
	.ENDM

	.MACRO __ANDD2N
	ANDI R26,LOW(@0)
	ANDI R27,HIGH(@0)
	ANDI R24,BYTE3(@0)
	ANDI R25,BYTE4(@0)
	.ENDM

	.MACRO __ORBMNN
	LDS  R30,@0+(@1)
	ORI  R30,LOW(@2)
	STS  @0+(@1),R30
	.ENDM

	.MACRO __ORWMNN
	LDS  R30,@0+(@1)
	ORI  R30,LOW(@2)
	STS  @0+(@1),R30
	LDS  R30,@0+(@1)+1
	ORI  R30,HIGH(@2)
	STS  @0+(@1)+1,R30
	.ENDM

	.MACRO __ORD1N
	ORI  R30,LOW(@0)
	ORI  R31,HIGH(@0)
	ORI  R22,BYTE3(@0)
	ORI  R23,BYTE4(@0)
	.ENDM

	.MACRO __ORD2N
	ORI  R26,LOW(@0)
	ORI  R27,HIGH(@0)
	ORI  R24,BYTE3(@0)
	ORI  R25,BYTE4(@0)
	.ENDM

	.MACRO __DELAY_USB
	LDI  R24,LOW(@0)
__DELAY_USB_LOOP:
	DEC  R24
	BRNE __DELAY_USB_LOOP
	.ENDM

	.MACRO __DELAY_USW
	LDI  R24,LOW(@0)
	LDI  R25,HIGH(@0)
__DELAY_USW_LOOP:
	SBIW R24,1
	BRNE __DELAY_USW_LOOP
	.ENDM

	.MACRO __GETD1S
	LDD  R30,Y+@0
	LDD  R31,Y+@0+1
	LDD  R22,Y+@0+2
	LDD  R23,Y+@0+3
	.ENDM

	.MACRO __GETD2S
	LDD  R26,Y+@0
	LDD  R27,Y+@0+1
	LDD  R24,Y+@0+2
	LDD  R25,Y+@0+3
	.ENDM

	.MACRO __PUTD1S
	STD  Y+@0,R30
	STD  Y+@0+1,R31
	STD  Y+@0+2,R22
	STD  Y+@0+3,R23
	.ENDM

	.MACRO __PUTD2S
	STD  Y+@0,R26
	STD  Y+@0+1,R27
	STD  Y+@0+2,R24
	STD  Y+@0+3,R25
	.ENDM

	.MACRO __PUTDZ2
	STD  Z+@0,R26
	STD  Z+@0+1,R27
	STD  Z+@0+2,R24
	STD  Z+@0+3,R25
	.ENDM

	.MACRO __CLRD1S
	STD  Y+@0,R30
	STD  Y+@0+1,R30
	STD  Y+@0+2,R30
	STD  Y+@0+3,R30
	.ENDM

	.MACRO __POINTB1MN
	LDI  R30,LOW(@0+(@1))
	.ENDM

	.MACRO __POINTW1MN
	LDI  R30,LOW(@0+(@1))
	LDI  R31,HIGH(@0+(@1))
	.ENDM

	.MACRO __POINTD1M
	LDI  R30,LOW(@0)
	LDI  R31,HIGH(@0)
	LDI  R22,BYTE3(@0)
	LDI  R23,BYTE4(@0)
	.ENDM

	.MACRO __POINTW1FN
	LDI  R30,LOW(2*@0+(@1))
	LDI  R31,HIGH(2*@0+(@1))
	.ENDM

	.MACRO __POINTD1FN
	LDI  R30,LOW(2*@0+(@1))
	LDI  R31,HIGH(2*@0+(@1))
	LDI  R22,BYTE3(2*@0+(@1))
	LDI  R23,BYTE4(2*@0+(@1))
	.ENDM

	.MACRO __POINTB2MN
	LDI  R26,LOW(@0+(@1))
	.ENDM

	.MACRO __POINTW2MN
	LDI  R26,LOW(@0+(@1))
	LDI  R27,HIGH(@0+(@1))
	.ENDM

	.MACRO __POINTW2FN
	LDI  R26,LOW(2*@0+(@1))
	LDI  R27,HIGH(2*@0+(@1))
	.ENDM

	.MACRO __POINTD2FN
	LDI  R26,LOW(2*@0+(@1))
	LDI  R27,HIGH(2*@0+(@1))
	LDI  R24,BYTE3(2*@0+(@1))
	LDI  R25,BYTE4(2*@0+(@1))
	.ENDM

	.MACRO __POINTBRM
	LDI  R@0,LOW(@1)
	.ENDM

	.MACRO __POINTWRM
	LDI  R@0,LOW(@2)
	LDI  R@1,HIGH(@2)
	.ENDM

	.MACRO __POINTBRMN
	LDI  R@0,LOW(@1+(@2))
	.ENDM

	.MACRO __POINTWRMN
	LDI  R@0,LOW(@2+(@3))
	LDI  R@1,HIGH(@2+(@3))
	.ENDM

	.MACRO __POINTWRFN
	LDI  R@0,LOW(@2*2+(@3))
	LDI  R@1,HIGH(@2*2+(@3))
	.ENDM

	.MACRO __GETD1N
	LDI  R30,LOW(@0)
	LDI  R31,HIGH(@0)
	LDI  R22,BYTE3(@0)
	LDI  R23,BYTE4(@0)
	.ENDM

	.MACRO __GETD2N
	LDI  R26,LOW(@0)
	LDI  R27,HIGH(@0)
	LDI  R24,BYTE3(@0)
	LDI  R25,BYTE4(@0)
	.ENDM

	.MACRO __GETB1MN
	LDS  R30,@0+(@1)
	.ENDM

	.MACRO __GETB1HMN
	LDS  R31,@0+(@1)
	.ENDM

	.MACRO __GETW1MN
	LDS  R30,@0+(@1)
	LDS  R31,@0+(@1)+1
	.ENDM

	.MACRO __GETD1MN
	LDS  R30,@0+(@1)
	LDS  R31,@0+(@1)+1
	LDS  R22,@0+(@1)+2
	LDS  R23,@0+(@1)+3
	.ENDM

	.MACRO __GETBRMN
	LDS  R@0,@1+(@2)
	.ENDM

	.MACRO __GETWRMN
	LDS  R@0,@2+(@3)
	LDS  R@1,@2+(@3)+1
	.ENDM

	.MACRO __GETWRZ
	LDD  R@0,Z+@2
	LDD  R@1,Z+@2+1
	.ENDM

	.MACRO __GETD2Z
	LDD  R26,Z+@0
	LDD  R27,Z+@0+1
	LDD  R24,Z+@0+2
	LDD  R25,Z+@0+3
	.ENDM

	.MACRO __GETB2MN
	LDS  R26,@0+(@1)
	.ENDM

	.MACRO __GETW2MN
	LDS  R26,@0+(@1)
	LDS  R27,@0+(@1)+1
	.ENDM

	.MACRO __GETD2MN
	LDS  R26,@0+(@1)
	LDS  R27,@0+(@1)+1
	LDS  R24,@0+(@1)+2
	LDS  R25,@0+(@1)+3
	.ENDM

	.MACRO __PUTB1MN
	STS  @0+(@1),R30
	.ENDM

	.MACRO __PUTW1MN
	STS  @0+(@1),R30
	STS  @0+(@1)+1,R31
	.ENDM

	.MACRO __PUTD1MN
	STS  @0+(@1),R30
	STS  @0+(@1)+1,R31
	STS  @0+(@1)+2,R22
	STS  @0+(@1)+3,R23
	.ENDM

	.MACRO __PUTB1EN
	LDI  R26,LOW(@0+(@1))
	LDI  R27,HIGH(@0+(@1))
	RCALL __EEPROMWRB
	.ENDM

	.MACRO __PUTW1EN
	LDI  R26,LOW(@0+(@1))
	LDI  R27,HIGH(@0+(@1))
	RCALL __EEPROMWRW
	.ENDM

	.MACRO __PUTD1EN
	LDI  R26,LOW(@0+(@1))
	LDI  R27,HIGH(@0+(@1))
	RCALL __EEPROMWRD
	.ENDM

	.MACRO __PUTBR0MN
	STS  @0+(@1),R0
	.ENDM

	.MACRO __PUTBMRN
	STS  @0+(@1),R@2
	.ENDM

	.MACRO __PUTWMRN
	STS  @0+(@1),R@2
	STS  @0+(@1)+1,R@3
	.ENDM

	.MACRO __PUTBZR
	STD  Z+@1,R@0
	.ENDM

	.MACRO __PUTWZR
	STD  Z+@2,R@0
	STD  Z+@2+1,R@1
	.ENDM

	.MACRO __GETW1R
	MOV  R30,R@0
	MOV  R31,R@1
	.ENDM

	.MACRO __GETW2R
	MOV  R26,R@0
	MOV  R27,R@1
	.ENDM

	.MACRO __GETWRN
	LDI  R@0,LOW(@2)
	LDI  R@1,HIGH(@2)
	.ENDM

	.MACRO __PUTW1R
	MOV  R@0,R30
	MOV  R@1,R31
	.ENDM

	.MACRO __PUTW2R
	MOV  R@0,R26
	MOV  R@1,R27
	.ENDM

	.MACRO __ADDWRN
	SUBI R@0,LOW(-@2)
	SBCI R@1,HIGH(-@2)
	.ENDM

	.MACRO __ADDWRR
	ADD  R@0,R@2
	ADC  R@1,R@3
	.ENDM

	.MACRO __SUBWRN
	SUBI R@0,LOW(@2)
	SBCI R@1,HIGH(@2)
	.ENDM

	.MACRO __SUBWRR
	SUB  R@0,R@2
	SBC  R@1,R@3
	.ENDM

	.MACRO __ANDWRN
	ANDI R@0,LOW(@2)
	ANDI R@1,HIGH(@2)
	.ENDM

	.MACRO __ANDWRR
	AND  R@0,R@2
	AND  R@1,R@3
	.ENDM

	.MACRO __ORWRN
	ORI  R@0,LOW(@2)
	ORI  R@1,HIGH(@2)
	.ENDM

	.MACRO __ORWRR
	OR   R@0,R@2
	OR   R@1,R@3
	.ENDM

	.MACRO __EORWRR
	EOR  R@0,R@2
	EOR  R@1,R@3
	.ENDM

	.MACRO __GETWRS
	LDD  R@0,Y+@2
	LDD  R@1,Y+@2+1
	.ENDM

	.MACRO __PUTBSR
	STD  Y+@1,R@0
	.ENDM

	.MACRO __PUTWSR
	STD  Y+@2,R@0
	STD  Y+@2+1,R@1
	.ENDM

	.MACRO __MOVEWRR
	MOV  R@0,R@2
	MOV  R@1,R@3
	.ENDM

	.MACRO __INWR
	IN   R@0,@2
	IN   R@1,@2+1
	.ENDM

	.MACRO __OUTWR
	OUT  @2+1,R@1
	OUT  @2,R@0
	.ENDM

	.MACRO __CALL1MN
	LDS  R30,@0+(@1)
	LDS  R31,@0+(@1)+1
	ICALL
	.ENDM

	.MACRO __CALL1FN
	LDI  R30,LOW(2*@0+(@1))
	LDI  R31,HIGH(2*@0+(@1))
	RCALL __GETW1PF
	ICALL
	.ENDM

	.MACRO __CALL2EN
	PUSH R26
	PUSH R27
	LDI  R26,LOW(@0+(@1))
	LDI  R27,HIGH(@0+(@1))
	RCALL __EEPROMRDW
	POP  R27
	POP  R26
	ICALL
	.ENDM

	.MACRO __CALL2EX
	SUBI R26,LOW(-@0)
	SBCI R27,HIGH(-@0)
	RCALL __EEPROMRDD
	ICALL
	.ENDM

	.MACRO __GETW1STACK
	IN   R30,SPL
	IN   R31,SPH
	ADIW R30,@0+1
	LD   R0,Z+
	LD   R31,Z
	MOV  R30,R0
	.ENDM

	.MACRO __GETD1STACK
	IN   R30,SPL
	IN   R31,SPH
	ADIW R30,@0+1
	LD   R0,Z+
	LD   R1,Z+
	LD   R22,Z
	MOVW R30,R0
	.ENDM

	.MACRO __NBST
	BST  R@0,@1
	IN   R30,SREG
	LDI  R31,0x40
	EOR  R30,R31
	OUT  SREG,R30
	.ENDM


	.MACRO __PUTB1SN
	LDD  R26,Y+@0
	LDD  R27,Y+@0+1
	SUBI R26,LOW(-@1)
	SBCI R27,HIGH(-@1)
	ST   X,R30
	.ENDM

	.MACRO __PUTW1SN
	LDD  R26,Y+@0
	LDD  R27,Y+@0+1
	SUBI R26,LOW(-@1)
	SBCI R27,HIGH(-@1)
	ST   X+,R30
	ST   X,R31
	.ENDM

	.MACRO __PUTD1SN
	LDD  R26,Y+@0
	LDD  R27,Y+@0+1
	SUBI R26,LOW(-@1)
	SBCI R27,HIGH(-@1)
	RCALL __PUTDP1
	.ENDM

	.MACRO __PUTB1SNS
	LDD  R26,Y+@0
	LDD  R27,Y+@0+1
	ADIW R26,@1
	ST   X,R30
	.ENDM

	.MACRO __PUTW1SNS
	LDD  R26,Y+@0
	LDD  R27,Y+@0+1
	ADIW R26,@1
	ST   X+,R30
	ST   X,R31
	.ENDM

	.MACRO __PUTD1SNS
	LDD  R26,Y+@0
	LDD  R27,Y+@0+1
	ADIW R26,@1
	RCALL __PUTDP1
	.ENDM

	.MACRO __PUTB1PMN
	LDS  R26,@0
	LDS  R27,@0+1
	SUBI R26,LOW(-@1)
	SBCI R27,HIGH(-@1)
	ST   X,R30
	.ENDM

	.MACRO __PUTW1PMN
	LDS  R26,@0
	LDS  R27,@0+1
	SUBI R26,LOW(-@1)
	SBCI R27,HIGH(-@1)
	ST   X+,R30
	ST   X,R31
	.ENDM

	.MACRO __PUTD1PMN
	LDS  R26,@0
	LDS  R27,@0+1
	SUBI R26,LOW(-@1)
	SBCI R27,HIGH(-@1)
	RCALL __PUTDP1
	.ENDM

	.MACRO __PUTB1PMNS
	LDS  R26,@0
	LDS  R27,@0+1
	ADIW R26,@1
	ST   X,R30
	.ENDM

	.MACRO __PUTW1PMNS
	LDS  R26,@0
	LDS  R27,@0+1
	ADIW R26,@1
	ST   X+,R30
	ST   X,R31
	.ENDM

	.MACRO __PUTD1PMNS
	LDS  R26,@0
	LDS  R27,@0+1
	ADIW R26,@1
	RCALL __PUTDP1
	.ENDM

	.MACRO __PUTB1RN
	MOVW R26,R@0
	SUBI R26,LOW(-@1)
	SBCI R27,HIGH(-@1)
	ST   X,R30
	.ENDM

	.MACRO __PUTW1RN
	MOVW R26,R@0
	SUBI R26,LOW(-@1)
	SBCI R27,HIGH(-@1)
	ST   X+,R30
	ST   X,R31
	.ENDM

	.MACRO __PUTD1RN
	MOVW R26,R@0
	SUBI R26,LOW(-@1)
	SBCI R27,HIGH(-@1)
	RCALL __PUTDP1
	.ENDM

	.MACRO __PUTB1RNS
	MOVW R26,R@0
	ADIW R26,@1
	ST   X,R30
	.ENDM

	.MACRO __PUTW1RNS
	MOVW R26,R@0
	ADIW R26,@1
	ST   X+,R30
	ST   X,R31
	.ENDM

	.MACRO __PUTD1RNS
	MOVW R26,R@0
	ADIW R26,@1
	RCALL __PUTDP1
	.ENDM

	.MACRO __PUTB1RON
	MOV  R26,R@0
	MOV  R27,R@1
	SUBI R26,LOW(-@2)
	SBCI R27,HIGH(-@2)
	ST   X,R30
	.ENDM

	.MACRO __PUTW1RON
	MOV  R26,R@0
	MOV  R27,R@1
	SUBI R26,LOW(-@2)
	SBCI R27,HIGH(-@2)
	ST   X+,R30
	ST   X,R31
	.ENDM

	.MACRO __PUTD1RON
	MOV  R26,R@0
	MOV  R27,R@1
	SUBI R26,LOW(-@2)
	SBCI R27,HIGH(-@2)
	RCALL __PUTDP1
	.ENDM

	.MACRO __PUTB1RONS
	MOV  R26,R@0
	MOV  R27,R@1
	ADIW R26,@2
	ST   X,R30
	.ENDM

	.MACRO __PUTW1RONS
	MOV  R26,R@0
	MOV  R27,R@1
	ADIW R26,@2
	ST   X+,R30
	ST   X,R31
	.ENDM

	.MACRO __PUTD1RONS
	MOV  R26,R@0
	MOV  R27,R@1
	ADIW R26,@2
	RCALL __PUTDP1
	.ENDM


	.MACRO __GETB1SX
	MOVW R30,R28
	SUBI R30,LOW(-@0)
	SBCI R31,HIGH(-@0)
	LD   R30,Z
	.ENDM

	.MACRO __GETB1HSX
	MOVW R30,R28
	SUBI R30,LOW(-@0)
	SBCI R31,HIGH(-@0)
	LD   R31,Z
	.ENDM

	.MACRO __GETW1SX
	MOVW R30,R28
	SUBI R30,LOW(-@0)
	SBCI R31,HIGH(-@0)
	LD   R0,Z+
	LD   R31,Z
	MOV  R30,R0
	.ENDM

	.MACRO __GETD1SX
	MOVW R30,R28
	SUBI R30,LOW(-@0)
	SBCI R31,HIGH(-@0)
	LD   R0,Z+
	LD   R1,Z+
	LD   R22,Z+
	LD   R23,Z
	MOVW R30,R0
	.ENDM

	.MACRO __GETB2SX
	MOVW R26,R28
	SUBI R26,LOW(-@0)
	SBCI R27,HIGH(-@0)
	LD   R26,X
	.ENDM

	.MACRO __GETW2SX
	MOVW R26,R28
	SUBI R26,LOW(-@0)
	SBCI R27,HIGH(-@0)
	LD   R0,X+
	LD   R27,X
	MOV  R26,R0
	.ENDM

	.MACRO __GETD2SX
	MOVW R26,R28
	SUBI R26,LOW(-@0)
	SBCI R27,HIGH(-@0)
	LD   R0,X+
	LD   R1,X+
	LD   R24,X+
	LD   R25,X
	MOVW R26,R0
	.ENDM

	.MACRO __GETBRSX
	MOVW R30,R28
	SUBI R30,LOW(-@1)
	SBCI R31,HIGH(-@1)
	LD   R@0,Z
	.ENDM

	.MACRO __GETWRSX
	MOVW R30,R28
	SUBI R30,LOW(-@2)
	SBCI R31,HIGH(-@2)
	LD   R@0,Z+
	LD   R@1,Z
	.ENDM

	.MACRO __GETBRSX2
	MOVW R26,R28
	SUBI R26,LOW(-@1)
	SBCI R27,HIGH(-@1)
	LD   R@0,X
	.ENDM

	.MACRO __GETWRSX2
	MOVW R26,R28
	SUBI R26,LOW(-@2)
	SBCI R27,HIGH(-@2)
	LD   R@0,X+
	LD   R@1,X
	.ENDM

	.MACRO __LSLW8SX
	MOVW R30,R28
	SUBI R30,LOW(-@0)
	SBCI R31,HIGH(-@0)
	LD   R31,Z
	CLR  R30
	.ENDM

	.MACRO __PUTB1SX
	MOVW R26,R28
	SUBI R26,LOW(-@0)
	SBCI R27,HIGH(-@0)
	ST   X,R30
	.ENDM

	.MACRO __PUTW1SX
	MOVW R26,R28
	SUBI R26,LOW(-@0)
	SBCI R27,HIGH(-@0)
	ST   X+,R30
	ST   X,R31
	.ENDM

	.MACRO __PUTD1SX
	MOVW R26,R28
	SUBI R26,LOW(-@0)
	SBCI R27,HIGH(-@0)
	ST   X+,R30
	ST   X+,R31
	ST   X+,R22
	ST   X,R23
	.ENDM

	.MACRO __CLRW1SX
	MOVW R26,R28
	SUBI R26,LOW(-@0)
	SBCI R27,HIGH(-@0)
	ST   X+,R30
	ST   X,R30
	.ENDM

	.MACRO __CLRD1SX
	MOVW R26,R28
	SUBI R26,LOW(-@0)
	SBCI R27,HIGH(-@0)
	ST   X+,R30
	ST   X+,R30
	ST   X+,R30
	ST   X,R30
	.ENDM

	.MACRO __PUTB2SX
	MOVW R30,R28
	SUBI R30,LOW(-@0)
	SBCI R31,HIGH(-@0)
	ST   Z,R26
	.ENDM

	.MACRO __PUTW2SX
	MOVW R30,R28
	SUBI R30,LOW(-@0)
	SBCI R31,HIGH(-@0)
	ST   Z+,R26
	ST   Z,R27
	.ENDM

	.MACRO __PUTD2SX
	MOVW R30,R28
	SUBI R30,LOW(-@0)
	SBCI R31,HIGH(-@0)
	ST   Z+,R26
	ST   Z+,R27
	ST   Z+,R24
	ST   Z,R25
	.ENDM

	.MACRO __PUTBSRX
	MOVW R30,R28
	SUBI R30,LOW(-@1)
	SBCI R31,HIGH(-@1)
	ST   Z,R@0
	.ENDM

	.MACRO __PUTWSRX
	MOVW R30,R28
	SUBI R30,LOW(-@2)
	SBCI R31,HIGH(-@2)
	ST   Z+,R@0
	ST   Z,R@1
	.ENDM

	.MACRO __PUTB1SNX
	MOVW R26,R28
	SUBI R26,LOW(-@0)
	SBCI R27,HIGH(-@0)
	LD   R0,X+
	LD   R27,X
	MOV  R26,R0
	SUBI R26,LOW(-@1)
	SBCI R27,HIGH(-@1)
	ST   X,R30
	.ENDM

	.MACRO __PUTW1SNX
	MOVW R26,R28
	SUBI R26,LOW(-@0)
	SBCI R27,HIGH(-@0)
	LD   R0,X+
	LD   R27,X
	MOV  R26,R0
	SUBI R26,LOW(-@1)
	SBCI R27,HIGH(-@1)
	ST   X+,R30
	ST   X,R31
	.ENDM

	.MACRO __PUTD1SNX
	MOVW R26,R28
	SUBI R26,LOW(-@0)
	SBCI R27,HIGH(-@0)
	LD   R0,X+
	LD   R27,X
	MOV  R26,R0
	SUBI R26,LOW(-@1)
	SBCI R27,HIGH(-@1)
	ST   X+,R30
	ST   X+,R31
	ST   X+,R22
	ST   X,R23
	.ENDM

	.MACRO __MULBRR
	MULS R@0,R@1
	MOVW R30,R0
	.ENDM

	.MACRO __MULBRRU
	MUL  R@0,R@1
	MOVW R30,R0
	.ENDM

	.MACRO __MULBRR0
	MULS R@0,R@1
	.ENDM

	.MACRO __MULBRRU0
	MUL  R@0,R@1
	.ENDM

	.MACRO __MULBNWRU
	LDI  R26,@2
	MUL  R26,R@0
	MOVW R30,R0
	MUL  R26,R@1
	ADD  R31,R0
	.ENDM

;NAME DEFINITIONS FOR GLOBAL VARIABLES ALLOCATED TO REGISTERS
	.DEF _as=R5
	.DEF _bs=R4
	.DEF _cs=R7
	.DEF _led_n=R6
	.DEF _effect_line=R9
	.DEF _curent_line=R8
	.DEF _n_pic=R11
	.DEF _play_en=R10

	.CSEG
	.ORG 0x00

;START OF CODE MARKER
__START_OF_CODE:

;INTERRUPT VECTORS
	RJMP __RESET
	RJMP 0x00
	RJMP 0x00
	RJMP 0x00
	RJMP _timer2_ovf_isr
	RJMP 0x00
	RJMP 0x00
	RJMP 0x00
	RJMP 0x00
	RJMP 0x00
	RJMP 0x00
	RJMP 0x00
	RJMP 0x00
	RJMP 0x00
	RJMP 0x00
	RJMP 0x00
	RJMP 0x00
	RJMP 0x00
	RJMP 0x00

_ae:
	.DB  0x0,0x1,0x2,0x4,0x8,0x10,0x20,0x40
	.DB  0x80,0x0,0x0,0x0,0x0,0x0,0x0,0x0
	.DB  0x0,0x0,0x0,0x0,0x0,0x0,0x0,0x0
	.DB  0x0,0x0,0x0,0x0,0x0,0x0,0x0,0x0
	.DB  0x0,0x80,0x40,0x20,0x10,0x8,0x4,0x2
	.DB  0x1,0x1,0x3,0x7,0xF,0x1F,0x3F,0x7F
	.DB  0xFF,0xFF,0xFF,0xFF,0xFF,0xFF,0xFF,0xFF
	.DB  0xFF,0xFF,0xFF,0xFF,0xFF,0xFF,0xFF,0xFF
	.DB  0xFF,0xFF,0xFF,0xFF,0xFF,0xFF,0xFF,0xFF
	.DB  0xFF,0xFF,0x7F,0x3F,0x1F,0xF,0x7,0x3
	.DB  0x1,0x0,0x1,0x3,0xF,0x1F,0x3F,0x7F
	.DB  0xFF,0xFF,0xFF,0xFF,0xFF,0xFF,0x7F,0x3F
	.DB  0x1F,0xF,0x7,0x3,0x1
_be:
	.DB  0x0,0x0,0x0,0x0,0x0,0x0,0x0,0x0
	.DB  0x0,0x1,0x2,0x4,0x8,0x10,0x20,0x40
	.DB  0x80,0x0,0x0,0x0,0x0,0x0,0x0,0x0
	.DB  0x0,0x80,0x40,0x20,0x10,0x8,0x4,0x2
	.DB  0x1,0x0,0x0,0x0,0x0,0x0,0x0,0x0
	.DB  0x0,0x0,0x0,0x0,0x0,0x0,0x0,0x0
	.DB  0x0,0x1,0x3,0x7,0xF,0x1F,0x3F,0x7F
	.DB  0xFF,0xFF,0xFF,0xFF,0xFF,0xFF,0xFF,0xFF
	.DB  0xFF,0xFF,0x7F,0x3F,0x1F,0xF,0x7,0x3
	.DB  0x1,0x0,0x0,0x0,0x0,0x0,0x0,0x0
	.DB  0x0,0x0,0x0,0x0,0x0,0x0,0x0,0x80
	.DB  0xC0,0xF1,0xFF,0xFF,0xF9,0xE0,0xC0,0x80
	.DB  0x0,0x0,0x0,0x0,0x0
_ce:
	.DB  0x0,0x0,0x0,0x0,0x0,0x0,0x0,0x0
	.DB  0x0,0x0,0x0,0x0,0x0,0x0,0x0,0x0
	.DB  0x0,0x1,0x2,0x4,0x8,0x8,0x4,0x2
	.DB  0x1,0x0,0x0,0x0,0x0,0x0,0x0,0x0
	.DB  0x0,0x0,0x0,0x0,0x0,0x0,0x0,0x0
	.DB  0x0,0x0,0x0,0x0,0x0,0x0,0x0,0x0
	.DB  0x0,0x0,0x0,0x0,0x0,0x0,0x0,0x0
	.DB  0x0,0x1,0x3,0x7,0xF,0xF,0x7,0x3
	.DB  0x1,0x0,0x0,0x0,0x0,0x0,0x0,0x0
	.DB  0x0,0x0,0x0,0x0,0x0,0x0,0x0,0x0
	.DB  0x0,0x0,0x0,0x0,0x8,0xE,0xF,0xF
	.DB  0xF,0xF,0xF,0xF,0xF,0xF,0xF,0xF
	.DB  0xF,0xE,0xC,0x8,0x0
_a1:
	.DB  0x0,0x0,0xE0,0xF0,0x78,0x1C,0xC,0x4
	.DB  0xE6,0xE2,0x63,0x63,0x63,0xE2,0xC6,0x84
	.DB  0xC,0x1C,0xF8,0xF0,0xC0,0x0,0x0,0x0
	.DB  0x0,0x0,0x80,0xF0,0xFC,0xFE,0xFE,0xFF
	.DB  0xFF,0xFF,0xFE,0xFE,0xFC,0xF8,0xF0,0xF8
	.DB  0xFC,0xFE,0xFE,0xFF,0xFF,0xFE,0xFE,0xFE
	.DB  0xFC,0xF0,0x0,0x0,0x0,0x8,0x18,0x1C
	.DB  0x3E,0xFE,0xFF,0xFF,0xFA,0xE0,0x80,0x0
	.DB  0x0,0x0,0x0,0x0,0x0,0x0,0x0,0x0
	.DB  0x0,0xC0,0xC0,0xC0,0xC0,0xC0,0xC0,0xC0
	.DB  0xC0,0xC0,0xC0,0xC0,0xC0,0xC0,0xC0,0xC0
	.DB  0xC0,0xC0,0xF8,0xF0,0xF0,0xE0,0xE0,0xE0
	.DB  0xC0,0xC0,0x80,0x80,0x0,0x0,0x0,0x0
	.DB  0x0,0x0,0x0,0x0,0x0,0x0,0x0,0x0
	.DB  0x0,0x0,0x0,0xE0,0x10,0x8,0x4,0x4
	.DB  0x0,0x0,0x2,0x2,0x2,0x80,0x4,0x4
	.DB  0x8,0x0,0x40,0x0,0x0,0x0,0x0,0x0
	.DB  0x0,0x0,0x0,0x0,0x0,0x80,0xC0,0xF0
	.DB  0x70,0xF0,0xD8,0x18,0x18,0x18,0x18,0x38
	.DB  0x38,0x70,0xF0,0xE0,0x80,0x0,0x0,0x0
	.DB  0x0,0x0,0x0,0x0,0x0,0x0,0x0,0x0
	.DB  0x0,0x0,0x0,0x0,0x0,0x0,0x0,0x0
	.DB  0x0,0x0,0x0,0x0,0x80,0xC0,0xC0,0xE0
	.DB  0xF0,0xF0,0xF8,0xF8,0xFC,0xFC,0xC0,0x0
	.DB  0x0,0x0,0x0,0x0,0x0,0x0,0x0,0x0
	.DB  0x0
_b1:
	.DB  0x0,0x6,0x1F,0x7F,0xE0,0x80,0x0,0x0
	.DB  0x7F,0x7F,0x4,0xE,0xE,0x3F,0x7B,0x71
	.DB  0x0,0x80,0xF0,0xFF,0x3F,0x6,0x0,0x0
	.DB  0x0,0x0,0x0,0x1,0x7,0x1F,0x1F,0x3F
	.DB  0x3F,0x7F,0xFF,0xFF,0xFF,0xFF,0xFF,0xFF
	.DB  0xFF,0xFF,0xFF,0x7F,0x3F,0x3F,0x1F,0xF
	.DB  0x7,0x1,0x0,0x0,0x0,0x0,0x0,0x0
	.DB  0x0,0x0,0x7,0x1F,0x7F,0xFF,0xFF,0x7F
	.DB  0xFE,0xFC,0x90,0x0,0x0,0x0,0x0,0x0
	.DB  0x0,0xF,0xF,0xF,0xF,0xF,0xF,0xF
	.DB  0xF,0xF,0xF,0xF,0xF,0xF,0xF,0xF
	.DB  0xF,0xF,0x7F,0x7F,0x3F,0x3F,0x3F,0x1F
	.DB  0x1F,0xF,0xF,0xF,0x7,0x7,0x3,0x2
	.DB  0x0,0x0,0x0,0x0,0x0,0x0,0x0,0x0
	.DB  0x0,0x0,0x0,0x0,0x3,0xC,0x30,0x1
	.DB  0x82,0x85,0xFE,0x86,0x81,0x80,0x40,0x10
	.DB  0x4,0x1,0x0,0x0,0x0,0x0,0x0,0x0
	.DB  0x0,0x0,0x0,0x0,0xC,0x3F,0xFB,0xC0
	.DB  0x80,0x1,0x3,0x7,0xE,0x1C,0x38,0x70
	.DB  0xE0,0xC0,0xC0,0xF3,0x7F,0x1C,0x0,0x0
	.DB  0x0,0x0,0x0,0x0,0x8,0x8,0x18,0x3C
	.DB  0x3C,0x7C,0x7E,0xFE,0xFC,0xF8,0xF0,0xE0
	.DB  0xF0,0xF8,0x7E,0x7F,0x3F,0x1F,0xF,0x7
	.DB  0x7,0x3,0x1,0x1,0x0,0x0,0x0,0x0
	.DB  0x0,0x0,0x0,0x0,0x0,0x0,0x0,0x0
	.DB  0x0
_c1:
	.DB  0x0,0x0,0x0,0x0,0x1,0x3,0x7,0x6
	.DB  0xE,0xC,0xC,0xC,0xC,0xE,0xE,0x6
	.DB  0x7,0x3,0x3,0x0,0x0,0x0,0x0,0x0
	.DB  0x0,0x0,0x0,0x0,0x0,0x0,0x0,0x0
	.DB  0x0,0x0,0x0,0x1,0x3,0x7,0xF,0x7
	.DB  0x3,0x1,0x0,0x0,0x0,0x0,0x0,0x0
	.DB  0x0,0x0,0x0,0x0,0x0,0x0,0x0,0x0
	.DB  0x0,0x0,0x0,0x0,0x0,0x0,0x0,0x0
	.DB  0x0,0x1,0x3,0x7,0xE,0x8,0x0,0x0
	.DB  0x0,0x0,0x0,0x0,0x0,0x0,0x0,0x0
	.DB  0x0,0x0,0x0,0x0,0x0,0x0,0x0,0x0
	.DB  0x0,0x0,0x0,0x0,0x0,0x0,0x0,0x0
	.DB  0x0,0x0,0x0,0x0,0x0,0x0,0x0,0x0
	.DB  0x0,0x0,0x0,0x0,0x0,0x0,0x0,0x0
	.DB  0x0,0x0,0x0,0x0,0x0,0x0,0x0,0x1
	.DB  0x7,0x7,0x7,0x7,0x7,0x7,0x0,0x0
	.DB  0x0,0x0,0x0,0x0,0x0,0x0,0x0,0x0
	.DB  0x0,0x0,0x0,0x0,0x0,0x0,0x1,0x1
	.DB  0x3,0x7,0x7,0x6,0x6,0x6,0x6,0x6
	.DB  0x3,0x3,0x3,0x1,0x0,0x0,0x0,0x0
	.DB  0x0,0x0,0x0,0x0,0x0,0x0,0x0,0x0
	.DB  0x0,0x0,0x0,0x0,0x0,0x1,0x1,0x3
	.DB  0x1,0x0,0x0,0x0,0x0,0x0,0x0,0x0
	.DB  0x0,0x0,0x0,0x0,0x0,0x0,0x0,0x0
	.DB  0x0,0x0,0x0,0x0,0x0,0x0,0x0,0x0
	.DB  0x0
_a2:
	.DB  0x0,0x0,0x80,0xE0,0x38,0xE,0x2,0x3
	.DB  0x83,0x83,0xC3,0xFF,0xFE,0xC0,0x40,0xC0
	.DB  0xC0,0x40,0xC0,0xC0,0x40,0xC0,0xC0,0x40
	.DB  0xC0,0xC0,0x0,0x0,0x0,0x0,0x0,0x0
	.DB  0x0,0x0,0x0,0x0,0x0,0x0,0x0,0x80
	.DB  0x80,0x80,0x80,0xC0,0xF0,0xF0,0xB8,0x9C
	.DB  0x8E,0x86,0x86,0x82,0x82,0x83,0x83,0x83
	.DB  0xFF,0xFF,0x83,0x82,0x82,0x82,0x86,0x8E
	.DB  0x8E,0xFC,0xF8,0xF0,0xC0,0x0,0x0,0x0
	.DB  0x0,0x0,0x0,0x0,0x0,0x0,0xC0,0xE0
	.DB  0xF0,0xFC,0xFE,0xFE,0xFE,0xFE,0xFE,0xBE
	.DB  0x9E,0x9E,0x8E,0x82,0x80,0x80,0x0,0x0
	.DB  0x0,0x0,0x0,0x0,0x0,0x0,0x80,0x0
	.DB  0x0,0x0,0x0,0x0,0x0,0xC0,0xF0,0x38
	.DB  0xC,0x6,0x3,0x83,0x83,0xC3,0xC3,0xFF
	.DB  0xFE,0x0,0x0,0x0,0x0,0x0,0x0,0x0
	.DB  0x0,0x0,0x0,0xC0,0xF0,0x38,0x1C,0xE
	.DB  0x6,0x83,0x83,0x83,0x83,0x83,0x83,0x83
	.DB  0x83,0x86,0xE,0x1C,0x38,0xF0,0xC0,0x0
	.DB  0x0,0x0,0x0,0x0,0x0,0x0,0xFC,0x2
	.DB  0x22,0x21,0x22,0x2,0xFC,0x0,0x0,0x0
	.DB  0x0,0x0,0x0,0x0,0x0,0x0,0x0,0xB0
	.DB  0xB0,0xB8,0xB8,0xB0,0xB0,0xB0,0xB0,0xB0
	.DB  0xB0,0xB0,0xB0,0xB0,0xB0,0xB8,0xB8,0xB0
	.DB  0xB0,0x30,0x0,0x0,0x0,0x0,0x0,0x0
	.DB  0x0
_b2:
	.DB  0x0,0x0,0x3F,0xFF,0xFF,0xFF,0x3F,0x1F
	.DB  0x1F,0x1F,0xFF,0xFF,0xFF,0xFF,0xF0,0xFF
	.DB  0xFF,0xF0,0xFF,0x3F,0x10,0x1F,0x1F,0xF0
	.DB  0xFF,0xFF,0x0,0x0,0x0,0x0,0x0,0x0
	.DB  0xF0,0xF0,0xFC,0xFE,0xFE,0x3F,0x1F,0x1F
	.DB  0x1F,0x1F,0x1F,0x3F,0xFF,0xFF,0xFF,0xFF
	.DB  0xFF,0xFF,0xFF,0xFF,0xFF,0xFF,0xFF,0xFF
	.DB  0xFF,0xFF,0x3F,0x1F,0x1F,0x1F,0x1F,0x1F
	.DB  0x3F,0xFF,0xFF,0xFF,0xFF,0x7C,0x0,0x0
	.DB  0x0,0x0,0x0,0x0,0xC,0xE,0xF,0xF
	.DB  0xF,0xCF,0xFF,0xFF,0xFF,0x7F,0x3F,0x1F
	.DB  0xF,0xF,0x7,0x3,0x1,0x0,0x0,0x0
	.DB  0xC0,0xE0,0xF0,0xF8,0xFE,0xFF,0xFF,0x7E
	.DB  0xC,0x86,0xE7,0x3E,0x1F,0x1F,0x1F,0x3F
	.DB  0xFF,0xFF,0xFF,0xFF,0xFF,0xFF,0xFF,0xFF
	.DB  0x3F,0x1F,0x1F,0x1E,0x3E,0xFE,0xFC,0xF8
	.DB  0x0,0x0,0x0,0x3F,0xFF,0xCE,0x87,0xF
	.DB  0x1F,0x3F,0x7F,0xF3,0xED,0xEF,0xF1,0x7F
	.DB  0x7F,0x3F,0x1F,0x7,0xC6,0xFF,0x7F,0x6
	.DB  0x0,0x0,0x0,0x0,0x0,0x8,0xEF,0xEC
	.DB  0xEC,0xEC,0xEC,0xEC,0xEF,0x8,0x0,0x0
	.DB  0x0,0x0,0x0,0x0,0x0,0x0,0x0,0xFF
	.DB  0xFF,0xF7,0xF7,0xE3,0xF7,0xFF,0xFF,0xFF
	.DB  0xFF,0xFF,0xFF,0xFF,0xF7,0xF7,0xF7,0xFF
	.DB  0xFF,0x0,0x0,0x0,0x0,0x0,0x0,0x0
	.DB  0x0
_c2:
	.DB  0x0,0x0,0x0,0x0,0x1,0x3,0xE,0xC
	.DB  0xC,0xC,0x7,0x3,0x0,0x0,0x0,0x0
	.DB  0x0,0x1,0x7,0xE,0xC,0xC,0xC,0x7
	.DB  0x1,0x0,0x0,0x0,0x0,0x0,0x0,0x0
	.DB  0x0,0x0,0x1,0x7,0x7,0xC,0x8,0x8
	.DB  0x8,0x8,0xC,0x6,0x7,0x3,0x1,0x1
	.DB  0x1,0x1,0x1,0x1,0x1,0x1,0x1,0x1
	.DB  0x3,0x7,0x6,0xC,0x8,0x8,0x8,0xC
	.DB  0xC,0x7,0x3,0x1,0x0,0x0,0x0,0x0
	.DB  0x0,0x0,0x0,0x0,0x0,0x0,0x0,0x4
	.DB  0x6,0x3,0x1,0x0,0x0,0x0,0x0,0x0
	.DB  0x0,0x0,0x0,0x0,0x0,0x0,0x0,0x0
	.DB  0x0,0x1,0x1,0x1,0x1,0x1,0x1,0x0
	.DB  0x0,0x1,0x7,0xE,0xC,0xC,0xC,0xC
	.DB  0x7,0x3,0x1,0x1,0x1,0x1,0x1,0x7
	.DB  0xE,0xC,0xC,0xC,0xC,0x7,0x3,0x1
	.DB  0x0,0x0,0x0,0x0,0x0,0x1,0x3,0x7
	.DB  0x6,0xC,0xC,0xC,0xF,0xF,0xC,0xC
	.DB  0xC,0xE,0x6,0x3,0x1,0x0,0x0,0x0
	.DB  0x0,0x0,0x0,0x0,0x0,0x0,0x0,0x7
	.DB  0x0,0x0,0x0,0x7,0x0,0x0,0x0,0x0
	.DB  0x0,0x0,0x0,0x0,0x0,0x0,0x3,0x3
	.DB  0x3,0x3,0x3,0x3,0x3,0x3,0x3,0x3
	.DB  0x3,0x3,0x3,0x3,0x3,0x3,0x3,0x3
	.DB  0x3,0x3,0x3,0x0,0x0,0x0,0x0,0x0
	.DB  0x0
_a3:
	.DB  0x0,0x0,0x0,0x0,0x0,0x0,0x0,0x0
	.DB  0x0,0xE0,0xFF,0xF0,0x0,0x0,0x80,0xE0
	.DB  0xF0,0x18,0xC,0x6,0x6,0x86,0x86,0xC6
	.DB  0xC6,0xFE,0xFC,0x0,0x0,0x0,0x0,0x0
	.DB  0x0,0x0,0x0,0x0,0x0,0x0,0x0,0x0
	.DB  0x0,0x0,0x0,0x0,0x0,0x0,0x0,0x0
	.DB  0x0,0x0,0x0,0x0,0x0,0x0,0x60,0xE0
	.DB  0xC0,0xC0,0x0,0x0,0x0,0x0,0x0,0x0
	.DB  0x0,0x0,0x0,0x0,0x0,0x0,0x0,0x0
	.DB  0x0,0x0,0x0,0x60,0xE0,0xE0,0xE0,0xC0
	.DB  0xC0,0xC0,0x0,0x0,0x0,0x10,0x10,0x10
	.DB  0xF0,0xF0,0x80,0x0,0x0,0x0,0x0,0x0
	.DB  0x0,0x0,0x0,0x0,0xCC,0xFC,0x74,0xF8
	.DB  0xFC,0xF2,0xF2,0xF2,0xF2,0xF2,0x7E,0xFE
	.DB  0xFE,0xFC,0x0,0x0,0x0,0x0,0x0,0x0
	.DB  0x0,0x0,0xFE,0xC2,0xC2,0xC2,0xC2,0xC2
	.DB  0xC2,0xC2,0xC2,0xFE,0x8,0xF0,0xE0,0x0
	.DB  0x0,0x0,0x0,0x0,0x0,0x0,0x0,0x0
	.DB  0x0,0x80,0x40,0x20,0x20,0x20,0x20,0xE0
	.DB  0x0,0xE0,0xF0,0x30,0xF0,0x30,0xF0,0xF0
	.DB  0x30,0xE0,0x0,0x0,0x0,0x0,0x0,0x0
	.DB  0x0,0x0,0x0,0x0,0x0,0x0,0xF0,0xE0
	.DB  0x0,0x0,0x80,0x40,0x40,0x40,0xC0,0x80
	.DB  0x0,0x0,0x0,0x0,0x0,0x0,0x0,0x0
	.DB  0x0,0x0,0x0,0x0,0x0,0x0,0x0,0x0
	.DB  0x0
_b3:
	.DB  0x0,0x0,0xC0,0xE0,0x3E,0x1E,0x1F,0x3F
	.DB  0x7F,0xFF,0xFF,0xFF,0xFF,0xFF,0xFF,0xFF
	.DB  0xFF,0xFF,0xFF,0xF,0x7,0x7,0x7,0x7
	.DB  0x7,0xF,0xFF,0xF8,0x60,0x0,0x0,0x0
	.DB  0x0,0x0,0x0,0x0,0xE0,0x61,0x33,0x17
	.DB  0x17,0x36,0xEE,0xEC,0xFC,0xFC,0xFC,0xF8
	.DB  0xF8,0xFE,0xFE,0xFE,0xFF,0xFE,0xFE,0xFE
	.DB  0x3F,0x1F,0x1F,0x17,0x30,0xE0,0x80,0x0
	.DB  0x0,0x0,0x0,0x0,0x0,0x80,0xE0,0x30
	.DB  0x10,0x18,0x18,0x10,0x10,0xF8,0xFF,0xFF
	.DB  0xFE,0xFE,0xFE,0xFF,0x7F,0x1F,0xF,0x87
	.DB  0xF3,0x11,0x1F,0x18,0x18,0x10,0x30,0xE0
	.DB  0x0,0x0,0x0,0x0,0xFF,0xFF,0xFF,0xFE
	.DB  0x7D,0xBF,0xBF,0xBF,0x81,0x7F,0xFF,0xFF
	.DB  0xFF,0xFF,0x0,0x0,0x0,0x0,0x0,0x0
	.DB  0x0,0x0,0xFF,0xFF,0xFF,0xC7,0x83,0x83
	.DB  0xC7,0xFF,0xFF,0xFF,0x0,0x80,0x3,0x18
	.DB  0x20,0x0,0x80,0x0,0x0,0x0,0x0,0x0
	.DB  0xFF,0xF9,0xF8,0x38,0x3C,0x3E,0xFE,0xFF
	.DB  0xFC,0xFD,0xFD,0xFD,0xFD,0x3D,0x3D,0x3D
	.DB  0x7D,0xFD,0xFC,0x0,0x0,0x0,0x0,0x0
	.DB  0x0,0x0,0x0,0x0,0x0,0xF0,0xFF,0xFF
	.DB  0x3C,0x3B,0x38,0xF8,0xF8,0xFC,0xFF,0xFF
	.DB  0x78,0x70,0xF0,0xE0,0x0,0x0,0x0,0x0
	.DB  0x0,0x0,0x0,0x0,0x0,0x0,0x0,0x0
	.DB  0x0
_c3:
	.DB  0x0,0x0,0x1,0x3,0x6,0x4,0x4,0x6
	.DB  0x6,0x1,0x0,0x0,0x0,0x0,0x0,0x0
	.DB  0x0,0x1,0x3,0x7,0x6,0x6,0x6,0x6
	.DB  0x6,0x7,0x3,0x1,0x0,0x0,0x0,0x0
	.DB  0x0,0x0,0x0,0x0,0x3,0x6,0x6,0x4
	.DB  0x4,0x6,0x3,0x1,0x1,0x1,0x1,0x1
	.DB  0x1,0x1,0x1,0x1,0x1,0x1,0x1,0x3
	.DB  0x6,0x4,0x4,0x4,0x6,0x3,0x0,0x0
	.DB  0x0,0x0,0x0,0x0,0x0,0x0,0x3,0x7
	.DB  0x6,0x4,0x4,0x6,0x6,0x3,0x0,0x0
	.DB  0x0,0x0,0x2,0x2,0x0,0x0,0x0,0x0
	.DB  0x3,0x6,0x6,0x4,0x4,0x6,0x7,0x3
	.DB  0x0,0x0,0x0,0x0,0x7,0x7,0x5,0x6
	.DB  0x7,0x7,0x7,0x7,0x7,0x7,0x6,0x7
	.DB  0x7,0x7,0x0,0x0,0x0,0x0,0x0,0x0
	.DB  0x0,0x7,0x7,0x7,0x7,0x7,0x7,0x7
	.DB  0x7,0x7,0x7,0x7,0x7,0x6,0x1,0x2
	.DB  0x0,0x2,0x1,0x0,0x0,0x0,0x0,0x0
	.DB  0x0,0x0,0x3,0x2,0x6,0x2,0x3,0x0
	.DB  0x0,0x0,0x0,0x0,0x1,0x2,0x6,0x6
	.DB  0x3,0x1,0x0,0x0,0x0,0x0,0x0,0x0
	.DB  0x2,0x2,0x2,0x2,0x2,0x1,0x1,0x3
	.DB  0x2,0x6,0x2,0x3,0x1,0x1,0x1,0x3
	.DB  0x6,0x2,0x3,0x1,0x0,0x0,0x0,0x0
	.DB  0x0,0x0,0x0,0x0,0x0,0x0,0x0,0x0
	.DB  0x0
_a4:
	.DB  0x0,0x0,0x0,0x0,0x0,0x0,0x0,0x0
	.DB  0x0,0xE0,0xFF,0xF0,0x0,0x0,0x80,0xE0
	.DB  0xF0,0x18,0xC,0x6,0x6,0x86,0x86,0xC6
	.DB  0xC6,0xFE,0xFC,0x0,0x0,0x0,0x0,0x0
	.DB  0x0,0x0,0x0,0x0,0x0,0x0,0x0,0x0
	.DB  0x0,0x0,0x0,0x0,0x0,0x0,0x0,0x0
	.DB  0x0,0x0,0x0,0x0,0x0,0x0,0x60,0xE0
	.DB  0xC0,0xC0,0x0,0x0,0x0,0x0,0x0,0x0
	.DB  0x0,0x0,0x0,0x0,0x0,0x0,0x0,0x0
	.DB  0x0,0x0,0x0,0x60,0xE0,0xE0,0xE0,0xC0
	.DB  0xC0,0xC0,0x0,0x0,0x0,0x10,0x10,0x10
	.DB  0xF0,0xF0,0x80,0x0,0x0,0x0,0x0,0x0
	.DB  0x0,0x0,0x0,0x0,0xCC,0xFC,0x74,0xF8
	.DB  0xFC,0xF2,0xF2,0xF2,0xF2,0xF2,0x7E,0xFE
	.DB  0xFE,0xFC,0x0,0x0,0x0,0x0,0x0,0x0
	.DB  0x0,0x0,0xFE,0xC2,0xC2,0xC2,0xC2,0xC2
	.DB  0xC2,0xC2,0xC2,0xFE,0x8,0xF0,0xE0,0x0
	.DB  0x0,0x0,0x0,0x0,0x0,0x0,0x0,0x0
	.DB  0x0,0x80,0x40,0x20,0x20,0x20,0x20,0xE0
	.DB  0x0,0xE0,0xF0,0x30,0xF0,0x30,0xF0,0xF0
	.DB  0x30,0xE0,0x0,0x0,0x0,0x0,0x0,0x0
	.DB  0x0,0x0,0x0,0x0,0x0,0x0,0xF0,0xE0
	.DB  0x0,0x0,0x80,0x40,0x40,0x40,0xC0,0x80
	.DB  0x0,0x0,0x0,0x0,0x0,0x0,0x0,0x0
	.DB  0x0,0x0,0x0,0x0,0x0,0x0,0x0,0x0
	.DB  0x0
_b4:
	.DB  0x0,0x0,0xC0,0xE0,0x3E,0x1E,0x1F,0x3F
	.DB  0x7F,0xFF,0xFF,0xFF,0xFF,0xFF,0xFF,0xFF
	.DB  0xFF,0xFF,0xFF,0xF,0x7,0x7,0x7,0x7
	.DB  0x7,0xF,0xFF,0xF8,0x60,0x0,0x0,0x0
	.DB  0x0,0x0,0x0,0x0,0xE0,0x61,0x33,0x17
	.DB  0x17,0x36,0xEE,0xEC,0xFC,0xFC,0xFC,0xF8
	.DB  0xF8,0xFE,0xFE,0xFE,0xFF,0xFE,0xFE,0xFE
	.DB  0x3F,0x1F,0x1F,0x17,0x30,0xE0,0x80,0x0
	.DB  0x0,0x0,0x0,0x0,0x0,0x80,0xE0,0x30
	.DB  0x10,0x18,0x18,0x10,0x10,0xF8,0xFF,0xFF
	.DB  0xFE,0xFE,0xFE,0xFF,0x7F,0x1F,0xF,0x87
	.DB  0xF3,0x11,0x1F,0x18,0x18,0x10,0x30,0xE0
	.DB  0x0,0x0,0x0,0x0,0xFF,0xFF,0xFF,0xFE
	.DB  0x7D,0xBF,0xBF,0xBF,0x81,0x7F,0xFF,0xFF
	.DB  0xFF,0xFF,0x0,0x0,0x0,0x0,0x0,0x0
	.DB  0x0,0x0,0xFF,0xFF,0xFF,0xC7,0x83,0x83
	.DB  0xC7,0xFF,0xFF,0xFF,0x0,0x80,0x3,0x18
	.DB  0x20,0x0,0x80,0x0,0x0,0x0,0x0,0x0
	.DB  0xFF,0xF9,0xF8,0x38,0x3C,0x3E,0xFE,0xFF
	.DB  0xFC,0xFD,0xFD,0xFD,0xFD,0x3D,0x3D,0x3D
	.DB  0x7D,0xFD,0xFC,0x0,0x0,0x0,0x0,0x0
	.DB  0x0,0x0,0x0,0x0,0x0,0xF0,0xFF,0xFF
	.DB  0x3C,0x3B,0x38,0xF8,0xF8,0xFC,0xFF,0xFF
	.DB  0x78,0x70,0xF0,0xE0,0x0,0x0,0x0,0x0
	.DB  0x0,0x0,0x0,0x0,0x0,0x0,0x0,0x0
	.DB  0x0
_c4:
	.DB  0x0,0x0,0x1,0x3,0x6,0x4,0x4,0x6
	.DB  0x6,0x1,0x0,0x0,0x0,0x0,0x0,0x0
	.DB  0x0,0x1,0x3,0x7,0x6,0x6,0x6,0x6
	.DB  0x6,0x7,0x3,0x1,0x0,0x0,0x0,0x0
	.DB  0x0,0x0,0x0,0x0,0x3,0x6,0x6,0x4
	.DB  0x4,0x6,0x3,0x1,0x1,0x1,0x1,0x1
	.DB  0x1,0x1,0x1,0x1,0x1,0x1,0x1,0x3
	.DB  0x6,0x4,0x4,0x4,0x6,0x3,0x0,0x0
	.DB  0x0,0x0,0x0,0x0,0x0,0x0,0x3,0x7
	.DB  0x6,0x4,0x4,0x6,0x6,0x3,0x0,0x0
	.DB  0x0,0x0,0x2,0x2,0x0,0x0,0x0,0x0
	.DB  0x3,0x6,0x6,0x4,0x4,0x6,0x7,0x3
	.DB  0x0,0x0,0x0,0x0,0x7,0x7,0x5,0x6
	.DB  0x7,0x7,0x7,0x7,0x7,0x7,0x6,0x7
	.DB  0x7,0x7,0x0,0x0,0x0,0x0,0x0,0x0
	.DB  0x0,0x7,0x7,0x7,0x7,0x7,0x7,0x7
	.DB  0x7,0x7,0x7,0x7,0x7,0x6,0x1,0x2
	.DB  0x0,0x2,0x1,0x0,0x0,0x0,0x0,0x0
	.DB  0x0,0x0,0x3,0x2,0x6,0x2,0x3,0x0
	.DB  0x0,0x0,0x0,0x0,0x1,0x2,0x6,0x6
	.DB  0x3,0x1,0x0,0x0,0x0,0x0,0x0,0x0
	.DB  0x2,0x2,0x2,0x2,0x2,0x1,0x1,0x3
	.DB  0x2,0x6,0x2,0x3,0x1,0x1,0x1,0x3
	.DB  0x6,0x2,0x3,0x1,0x0,0x0,0x0,0x0
	.DB  0x0,0x0,0x0,0x0,0x0,0x0,0x0,0x0
	.DB  0x0
_a5:
	.DB  0x0,0x0,0x0,0x0,0x0,0xE0,0xF0,0xF0
	.DB  0x80,0x28,0x28,0x28,0xC8,0xC8,0xC8,0x28
	.DB  0x28,0x28,0xD0,0x70,0x10,0xE0,0x0,0x0
	.DB  0x0,0x0,0x0,0x0,0x0,0x0,0x0,0x0
	.DB  0x0,0x0,0x0,0x0,0x0,0x0,0x0,0x0
	.DB  0x0,0x0,0x0,0x0,0xC4,0xFE,0xE4,0xC4
	.DB  0x0,0x0,0x0,0x0,0x0,0x0,0x0,0x0
	.DB  0x0,0x0,0x0,0x0,0x0,0x0,0x0,0x0
	.DB  0x0,0x0,0x0,0x0,0x0,0x0,0x0,0x0
	.DB  0x0,0x0,0x0,0x0,0x0,0x0,0x0,0x0
	.DB  0x0,0x80,0xF0,0xF0,0xFC,0xF8,0xF0,0xF0
	.DB  0x0,0x0,0x0,0x0,0x0,0x0,0x0,0x0
	.DB  0x0,0x0,0x0,0x0,0x0,0xE0,0x70,0x38
	.DB  0x1C,0xC,0xE,0xE,0xE,0xC,0xC,0x1C
	.DB  0x38,0xF0,0xC0,0x0,0x0,0x0,0x0,0x0
	.DB  0x0,0x0,0x0,0x0,0x0,0x0,0x0,0x0
	.DB  0x0,0xE0,0xE0,0x60,0x60,0x60,0x60,0x60
	.DB  0x70,0x78,0x78,0x78,0x78,0x60,0x60,0x60
	.DB  0x60,0x60,0xE0,0xC0,0x0,0x0,0x0,0x0
	.DB  0x0,0x0,0x0,0x0,0x20,0xE0,0xC0,0xC0
	.DB  0xC0,0xC0,0xC0,0x80,0xC0,0xF0,0xFC,0xFF
	.DB  0xFF,0x0,0x0,0x0,0x0,0x0,0x0,0x0
	.DB  0x0,0x0,0x0,0x0,0x0,0x0,0x0,0x0
	.DB  0x0,0x0,0x8,0xC8,0xF8,0xC8,0x8,0x0
	.DB  0x0,0x0,0x0,0x0,0x0,0x0,0x0,0x0
	.DB  0x0
_b5:
	.DB  0x0,0x0,0x0,0x0,0x0,0x1,0x3,0x5
	.DB  0x19,0x13,0x66,0x7B,0xC3,0x83,0xC3,0x7B
	.DB  0x7E,0x1F,0xF,0xF,0x3,0x1,0x0,0x0
	.DB  0x0,0x0,0x0,0x0,0x0,0x0,0x0,0x0
	.DB  0x0,0x0,0x0,0x0,0x0,0x0,0x0,0xE0
	.DB  0xE0,0xE0,0xE0,0xFF,0xFF,0xFF,0xFF,0xFF
	.DB  0xF3,0xE0,0xE0,0xE0,0xE0,0x0,0x0,0x0
	.DB  0x0,0x0,0x0,0x0,0x0,0x0,0x0,0x0
	.DB  0x0,0x0,0x0,0x0,0x0,0x80,0x0,0x0
	.DB  0x0,0x0,0x0,0x0,0x0,0xF8,0xFC,0xFE
	.DB  0xFF,0xFF,0xFF,0xFF,0xFF,0x7,0x0,0x0
	.DB  0x0,0x0,0x0,0x0,0x0,0x0,0x0,0x0
	.DB  0x0,0x0,0x0,0x80,0xC1,0xDF,0x3C,0x38
	.DB  0x60,0x40,0xC0,0xC0,0x40,0x40,0x60,0x30
	.DB  0x38,0x1F,0x3,0x0,0x0,0x0,0x0,0x0
	.DB  0x0,0x0,0x0,0x0,0x0,0x0,0x0,0x0
	.DB  0x0,0xFF,0xFF,0x0,0x0,0x0,0x0,0x18
	.DB  0x18,0x7E,0x7E,0x7E,0x18,0x18,0x0,0x0
	.DB  0x0,0x0,0xFF,0xFF,0x0,0x0,0x0,0x0
	.DB  0x0,0x0,0x0,0x0,0x0,0x0,0x1,0x81
	.DB  0xE3,0xF3,0xFF,0x7F,0x3F,0x7F,0xFF,0xFF
	.DB  0xFF,0xF,0xF,0x7,0x7,0x7,0x3,0x3
	.DB  0x0,0x0,0x0,0x0,0x0,0x0,0x0,0x0
	.DB  0x0,0x0,0x0,0x3F,0xFF,0x3F,0x0,0x0
	.DB  0x0,0x0,0x0,0x0,0x0,0x0,0x0,0x0
	.DB  0x0
_c5:
	.DB  0x0,0x0,0x0,0x0,0x0,0x0,0x0,0x0
	.DB  0x0,0x0,0x0,0x0,0x1,0x3,0x1,0x0
	.DB  0x0,0x0,0x0,0x0,0x0,0x0,0x0,0x0
	.DB  0x0,0x0,0x0,0x0,0x0,0x0,0x0,0x0
	.DB  0x0,0x0,0x0,0x0,0x0,0x0,0x0,0x7
	.DB  0x7,0x7,0x7,0x7,0xF,0x7,0xF,0x7
	.DB  0x7,0x7,0x7,0x7,0x7,0x0,0x0,0x0
	.DB  0x0,0x0,0x0,0x0,0x0,0x0,0x0,0x0
	.DB  0x0,0x0,0x0,0x0,0x0,0x3,0x4,0x4
	.DB  0x4,0x4,0x4,0x4,0x4,0x7,0x7,0x7
	.DB  0x7,0x7,0x7,0x7,0x7,0x4,0x0,0x0
	.DB  0x0,0x0,0x0,0x0,0x0,0x0,0x0,0x0
	.DB  0x4,0xE,0x7,0x3,0x1,0x0,0x0,0x0
	.DB  0x0,0x0,0x0,0x0,0x0,0x0,0x0,0x0
	.DB  0x0,0x0,0x0,0x0,0x0,0x0,0x0,0x0
	.DB  0x0,0x0,0x0,0x0,0x0,0x0,0x0,0x0
	.DB  0x0,0x3,0x3,0x6,0x6,0x6,0x6,0x2
	.DB  0x2,0x2,0x2,0x6,0x6,0x6,0x6,0x6
	.DB  0x6,0x6,0x3,0x1,0x0,0x0,0x0,0x0
	.DB  0x0,0x0,0x0,0x0,0x0,0x0,0x3,0x3
	.DB  0x1,0x1,0x0,0x0,0x0,0x0,0x1,0x7
	.DB  0xF,0xF,0xC,0x0,0x0,0x0,0x0,0x0
	.DB  0x0,0x0,0x0,0x0,0x0,0x0,0x0,0x0
	.DB  0x0,0x0,0x0,0x0,0x1,0x0,0x0,0x0
	.DB  0x0,0x0,0x0,0x0,0x0,0x0,0x0,0x0
	.DB  0x0

;REGISTER BIT VARIABLES INITIALIZATION
__REG_BIT_VARS:
	.DW  0x0000

;GLOBAL REGISTER VARIABLES INITIALIZATION
__REG_VARS:
	.DB  0x0,0x0,0x0,0x0
	.DB  0x0,0x0,0xFA,0x0


__GLOBAL_INI_TBL:
	.DW  0x01
	.DW  0x02
	.DW  __REG_BIT_VARS*2

	.DW  0x08
	.DW  0x04
	.DW  __REG_VARS*2

_0xFFFFFFFF:
	.DW  0

#define __GLOBAL_INI_TBL_PRESENT 1

__RESET:
	CLI
	CLR  R30
	OUT  EECR,R30

;INTERRUPT VECTORS ARE PLACED
;AT THE START OF FLASH
	LDI  R31,1
	OUT  GICR,R31
	OUT  GICR,R30
	OUT  MCUCR,R30

;DISABLE WATCHDOG
	LDI  R31,0x18
	OUT  WDTCR,R31
	OUT  WDTCR,R30

;CLEAR R2-R14
	LDI  R24,(14-2)+1
	LDI  R26,2
	CLR  R27
__CLEAR_REG:
	ST   X+,R30
	DEC  R24
	BRNE __CLEAR_REG

;CLEAR SRAM
	LDI  R24,LOW(__CLEAR_SRAM_SIZE)
	LDI  R25,HIGH(__CLEAR_SRAM_SIZE)
	LDI  R26,__SRAM_START
__CLEAR_SRAM:
	ST   X+,R30
	SBIW R24,1
	BRNE __CLEAR_SRAM

;GLOBAL VARIABLES INITIALIZATION
	LDI  R30,LOW(__GLOBAL_INI_TBL*2)
	LDI  R31,HIGH(__GLOBAL_INI_TBL*2)
__GLOBAL_INI_NEXT:
	LPM  R24,Z+
	LPM  R25,Z+
	SBIW R24,0
	BREQ __GLOBAL_INI_END
	LPM  R26,Z+
	LPM  R27,Z+
	LPM  R0,Z+
	LPM  R1,Z+
	MOVW R22,R30
	MOVW R30,R0
__GLOBAL_INI_LOOP:
	LPM  R0,Z+
	ST   X+,R0
	SBIW R24,1
	BRNE __GLOBAL_INI_LOOP
	MOVW R30,R22
	RJMP __GLOBAL_INI_NEXT
__GLOBAL_INI_END:

;HARDWARE STACK POINTER INITIALIZATION
	LDI  R30,LOW(__SRAM_END-__HEAP_SIZE)
	OUT  SPL,R30
	LDI  R30,HIGH(__SRAM_END-__HEAP_SIZE)
	OUT  SPH,R30

;DATA STACK POINTER INITIALIZATION
	LDI  R28,LOW(__SRAM_START+__DSTACK_SIZE)
	LDI  R29,HIGH(__SRAM_START+__DSTACK_SIZE)

	RJMP _main

	.ESEG
	.ORG 0

	.DSEG
	.ORG 0x160

	.CSEG
;/*****************************************************
;This program was produced by the
;CodeWizardAVR V2.05.0 Professional
;Automatic Program Generator
;© Copyright 1998-2010 Pavel Haiduc, HP InfoTech s.r.l.
;http://www.hpinfotech.com
;
;Project :
;Version :
;Date    : 29.04.2014
;Author  :
;Company :
;Comments:
;
;
;Chip type               : ATmega8
;Program type            : Application
;AVR Core Clock frequency: 8,000000 MHz
;Memory model            : Small
;External RAM size       : 0
;Data Stack size         : 256
;*****************************************************/
;
;#define d1 PORTB.4
;#define d2 PORTB.3
;#define d3 PORTB.2
;#define d4 PORTB.1
;#define d5 PORTB.0
;#define d6 PORTD.7
;#define d7 PORTD.6
;#define d8 PORTD.5
;#define d9 PORTB.7
;#define d10 PORTB.6
;#define d11 PORTD.4
;#define d12 PORTD.3
;#define d13 PORTC.0
;#define d14 PORTD.1
;#define d15 PORTD.0
;#define d16 PORTC.5
;#define d17 PORTC.4
;#define d18 PORTC.3
;#define d19 PORTC.2
;#define d20 PORTC.1
;
;#define sens PIND.1
;#define but PINB.5
;
;#define max_line 200
;#define max_pic 5
;
;
;flash char ae[]={0,1,2,4,8,16,32,64,128,0,0,0,0,0,0,0,0,0,0,0,0,0,0,0,0,0,0,0,0,0,0,0,0,128,64,32,16,8,4,2,1,1,3,7,15,31 ...
;flash char be[]={0,0,0,0,0,0,0,0,0,1,2,4,8,16,32,64,128,0,0,0,0,0,0,0,0,128,64,32,16,8,4,2,1,0,0,0,0,0,0,0,0,0,0,0,0,0,0 ...
;flash char ce[]={0,0,0,0,0,0,0,0,0,0,0,0,0,0,0,0,0,1,2,4,8,8,4,2,1,0,0,0,0,0,0,0,0,0,0,0,0,0,0,0,0,0,0,0,0,0,0,0,0,0,0,0 ...
;
;flash char a1[]={0,0,224,240,120,28,12,4,230,226,99,99,99,226,198,132,12,28,248,240,192,0,0,0,0,0,128,240,252,254,254,25 ...
;flash char b1[]={0,6,31,127,224,128,0,0,127,127,4,14,14,63,123,113,0,128,240,255,63,6,0,0,0,0,0,1,7,31,31,63,63,127,255, ...
;flash char c1[]={0,0,0,0,1,3,7,6,14,12,12,12,12,14,14,6,7,3,3,0,0,0,0,0,0,0,0,0,0,0,0,0,0,0,0,1,3,7,15,7,3,1,0,0,0,0,0,0 ...
;
;flash char a2[]={0,0,128,224,56,14,2,3,131,131,195,255,254,192,64,192,192,64,192,192,64,192,192,64,192,192,0,0,0,0,0,0,0 ...
;flash char b2[]={0,0,63,255,255,255,63,31,31,31,255,255,255,255,240,255,255,240,255,63,16,31,31,240,255,255,0,0,0,0,0,0, ...
;flash char c2[]={0,0,0,0,1,3,14,12,12,12,7,3,0,0,0,0,0,1,7,14,12,12,12,7,1,0,0,0,0,0,0,0,0,0,1,7,7,12,8,8,8,8,12,6,7,3,1 ...
;
;flash char a3[]={0,0,0,0,0,0,0,0,0,224,255,240,0,0,128,224,240,24,12,6,6,134,134,198,198,254,252,0,0,0,0,0,0,0,0,0,0,0,0 ...
;flash char b3[]={0,0,192,224,62,30,31,63,127,255,255,255,255,255,255,255,255,255,255,15,7,7,7,7,7,15,255,248,96,0,0,0,0, ...
;flash char c3[]={0,0,1,3,6,4,4,6,6,1,0,0,0,0,0,0,0,1,3,7,6,6,6,6,6,7,3,1,0,0,0,0,0,0,0,0,3,6,6,4,4,6,3,1,1,1,1,1,1,1,1,1 ...
;
;flash char a4[]={0,0,0,0,0,0,0,0,0,224,255,240,0,0,128,224,240,24,12,6,6,134,134,198,198,254,252,0,0,0,0,0,0,0,0,0,0,0,0 ...
;flash char b4[]={0,0,192,224,62,30,31,63,127,255,255,255,255,255,255,255,255,255,255,15,7,7,7,7,7,15,255,248,96,0,0,0,0, ...
;flash char c4[]={0,0,1,3,6,4,4,6,6,1,0,0,0,0,0,0,0,1,3,7,6,6,6,6,6,7,3,1,0,0,0,0,0,0,0,0,3,6,6,4,4,6,3,1,1,1,1,1,1,1,1,1 ...
;
;flash char a5[]={0,0,0,0,0,224,240,240,128,40,40,40,200,200,200,40,40,40,208,112,16,224,0,0,0,0,0,0,0,0,0,0,0,0,0,0,0,0, ...
;flash char b5[]={0,0,0,0,0,1,3,5,25,19,102,123,195,131,195,123,126,31,15,15,3,1,0,0,0,0,0,0,0,0,0,0,0,0,0,0,0,0,0,224,22 ...
;flash char c5[]={0,0,0,0,0,0,0,0,0,0,0,0,1,3,1,0,0,0,0,0,0,0,0,0,0,0,0,0,0,0,0,0,0,0,0,0,0,0,0,7,7,7,7,7,15,7,15,7,7,7,7 ...
;
;
;#include <mega8.h>
	#ifndef __SLEEP_DEFINED__
	#define __SLEEP_DEFINED__
	.EQU __se_bit=0x80
	.EQU __sm_mask=0x70
	.EQU __sm_powerdown=0x20
	.EQU __sm_powersave=0x30
	.EQU __sm_standby=0x60
	.EQU __sm_ext_standby=0x70
	.EQU __sm_adc_noise_red=0x10
	.SET power_ctrl_reg=mcucr
	#endif
; #include <delay.h>
; #include <sleep.h>
;
;
;char as=0,bs=0,cs=0;//поточний стан світлодіодів
;char led_n=0;
;char effect_line=0;
;char curent_line=0;
;char n_pic=0;
;bit old_but=0;
;char play_en=250;
;void set_led_state(char a,char b,char c)
; 0000 005A {

	.CSEG
_set_led_state:
; .FSTART _set_led_state
; 0000 005B     as=a; bs=b; cs=c;
	ST   -Y,R26
;	a -> Y+2
;	b -> Y+1
;	c -> Y+0
	LDD  R5,Y+2
	LDD  R4,Y+1
	LDD  R7,Y+0
; 0000 005C }
	ADIW R28,3
	RET
; .FEND
;// Timer2 overflow interrupt service routine
;interrupt [TIM2_OVF] void timer2_ovf_isr(void)
; 0000 005F {
_timer2_ovf_isr:
; .FSTART _timer2_ovf_isr
	ST   -Y,R26
	ST   -Y,R30
	ST   -Y,R31
	IN   R30,SREG
	ST   -Y,R30
; 0000 0060 TCNT2=0xCE;
	LDI  R30,LOW(206)
	OUT  0x24,R30
; 0000 0061     led_n++;
	INC  R6
; 0000 0062     if (led_n==21) {led_n=1;}
	LDI  R30,LOW(21)
	CP   R30,R6
	BRNE _0x3
	LDI  R30,LOW(1)
	MOV  R6,R30
; 0000 0063     PORTB=0; PORTC=0; PORTD=0;
_0x3:
	LDI  R30,LOW(0)
	OUT  0x18,R30
	OUT  0x15,R30
	OUT  0x12,R30
; 0000 0064     switch(led_n)
	MOV  R30,R6
	LDI  R31,0
; 0000 0065 		{
; 0000 0066 		case 1:
	CPI  R30,LOW(0x1)
	LDI  R26,HIGH(0x1)
	CPC  R31,R26
	BRNE _0x7
; 0000 0067 			d1=(as & 0B00000001);// 1
	SBRC R5,0
	RJMP _0x8
	CBI  0x18,4
	RJMP _0x9
_0x8:
	SBI  0x18,4
_0x9:
; 0000 0068 			break;
	RJMP _0x6
; 0000 0069 		case 2:
_0x7:
	CPI  R30,LOW(0x2)
	LDI  R26,HIGH(0x2)
	CPC  R31,R26
	BRNE _0xA
; 0000 006A 			d2=(as & 0B00000010);// 2
	SBRC R5,1
	RJMP _0xB
	CBI  0x18,3
	RJMP _0xC
_0xB:
	SBI  0x18,3
_0xC:
; 0000 006B 			break;
	RJMP _0x6
; 0000 006C 		case 3:
_0xA:
	CPI  R30,LOW(0x3)
	LDI  R26,HIGH(0x3)
	CPC  R31,R26
	BRNE _0xD
; 0000 006D 			d3=(as & 0B00000100);// 3
	SBRC R5,2
	RJMP _0xE
	CBI  0x18,2
	RJMP _0xF
_0xE:
	SBI  0x18,2
_0xF:
; 0000 006E 			break;
	RJMP _0x6
; 0000 006F 		case 4:
_0xD:
	CPI  R30,LOW(0x4)
	LDI  R26,HIGH(0x4)
	CPC  R31,R26
	BRNE _0x10
; 0000 0070 			d4=(as & 0B00001000);// 4
	SBRC R5,3
	RJMP _0x11
	CBI  0x18,1
	RJMP _0x12
_0x11:
	SBI  0x18,1
_0x12:
; 0000 0071 			break;
	RJMP _0x6
; 0000 0072 		case 5:
_0x10:
	CPI  R30,LOW(0x5)
	LDI  R26,HIGH(0x5)
	CPC  R31,R26
	BRNE _0x13
; 0000 0073 			d5=(as & 0B00010000);// 5
	SBRC R5,4
	RJMP _0x14
	CBI  0x18,0
	RJMP _0x15
_0x14:
	SBI  0x18,0
_0x15:
; 0000 0074 			break;
	RJMP _0x6
; 0000 0075 		case 6:
_0x13:
	CPI  R30,LOW(0x6)
	LDI  R26,HIGH(0x6)
	CPC  R31,R26
	BRNE _0x16
; 0000 0076 			d6=(as & 0B00100000);// 6
	SBRC R5,5
	RJMP _0x17
	CBI  0x12,7
	RJMP _0x18
_0x17:
	SBI  0x12,7
_0x18:
; 0000 0077 			break;
	RJMP _0x6
; 0000 0078 		case 7:
_0x16:
	CPI  R30,LOW(0x7)
	LDI  R26,HIGH(0x7)
	CPC  R31,R26
	BRNE _0x19
; 0000 0079 			d7=(as & 0B01000000);// 7
	SBRC R5,6
	RJMP _0x1A
	CBI  0x12,6
	RJMP _0x1B
_0x1A:
	SBI  0x12,6
_0x1B:
; 0000 007A 			break;
	RJMP _0x6
; 0000 007B 		case 8:
_0x19:
	CPI  R30,LOW(0x8)
	LDI  R26,HIGH(0x8)
	CPC  R31,R26
	BRNE _0x1C
; 0000 007C 			d8=(as & 0B10000000);// 8
	SBRC R5,7
	RJMP _0x1D
	CBI  0x12,5
	RJMP _0x1E
_0x1D:
	SBI  0x12,5
_0x1E:
; 0000 007D 			break;
	RJMP _0x6
; 0000 007E 		case 9:
_0x1C:
	CPI  R30,LOW(0x9)
	LDI  R26,HIGH(0x9)
	CPC  R31,R26
	BRNE _0x1F
; 0000 007F 			d9=(bs & 0B00000001);// 9
	SBRC R4,0
	RJMP _0x20
	CBI  0x18,7
	RJMP _0x21
_0x20:
	SBI  0x18,7
_0x21:
; 0000 0080 			break;
	RJMP _0x6
; 0000 0081 		case 10:
_0x1F:
	CPI  R30,LOW(0xA)
	LDI  R26,HIGH(0xA)
	CPC  R31,R26
	BRNE _0x22
; 0000 0082 			d10=(bs & 0B00000010);// 10
	SBRC R4,1
	RJMP _0x23
	CBI  0x18,6
	RJMP _0x24
_0x23:
	SBI  0x18,6
_0x24:
; 0000 0083 			break;
	RJMP _0x6
; 0000 0084 		case 11:
_0x22:
	CPI  R30,LOW(0xB)
	LDI  R26,HIGH(0xB)
	CPC  R31,R26
	BRNE _0x25
; 0000 0085 			d11=(bs & 0B00000100);// 11
	SBRC R4,2
	RJMP _0x26
	CBI  0x12,4
	RJMP _0x27
_0x26:
	SBI  0x12,4
_0x27:
; 0000 0086 			break;
	RJMP _0x6
; 0000 0087 		case 12:
_0x25:
	CPI  R30,LOW(0xC)
	LDI  R26,HIGH(0xC)
	CPC  R31,R26
	BRNE _0x28
; 0000 0088 			d12=(bs & 0B00001000);// 12
	SBRC R4,3
	RJMP _0x29
	CBI  0x12,3
	RJMP _0x2A
_0x29:
	SBI  0x12,3
_0x2A:
; 0000 0089 			break;
	RJMP _0x6
; 0000 008A 		case 13:
_0x28:
	CPI  R30,LOW(0xD)
	LDI  R26,HIGH(0xD)
	CPC  R31,R26
	BRNE _0x2B
; 0000 008B 			d13=(bs & 0B00010000);// 13
	SBRC R4,4
	RJMP _0x2C
	CBI  0x15,0
	RJMP _0x2D
_0x2C:
	SBI  0x15,0
_0x2D:
; 0000 008C 			break;
	RJMP _0x6
; 0000 008D 		case 14:
_0x2B:
	CPI  R30,LOW(0xE)
	LDI  R26,HIGH(0xE)
	CPC  R31,R26
	BRNE _0x2E
; 0000 008E 			d14=(bs & 0B00100000);// 14
	SBRC R4,5
	RJMP _0x2F
	CBI  0x12,1
	RJMP _0x30
_0x2F:
	SBI  0x12,1
_0x30:
; 0000 008F 			break;
	RJMP _0x6
; 0000 0090 		case 15:
_0x2E:
	CPI  R30,LOW(0xF)
	LDI  R26,HIGH(0xF)
	CPC  R31,R26
	BRNE _0x31
; 0000 0091 			d15=(bs & 0B01000000);// 15
	SBRC R4,6
	RJMP _0x32
	CBI  0x12,0
	RJMP _0x33
_0x32:
	SBI  0x12,0
_0x33:
; 0000 0092 			break;
	RJMP _0x6
; 0000 0093 		case 16:
_0x31:
	CPI  R30,LOW(0x10)
	LDI  R26,HIGH(0x10)
	CPC  R31,R26
	BRNE _0x34
; 0000 0094 			d16=(bs & 0B10000000);// 16
	SBRC R4,7
	RJMP _0x35
	CBI  0x15,5
	RJMP _0x36
_0x35:
	SBI  0x15,5
_0x36:
; 0000 0095 			break;
	RJMP _0x6
; 0000 0096 		case 17:
_0x34:
	CPI  R30,LOW(0x11)
	LDI  R26,HIGH(0x11)
	CPC  R31,R26
	BRNE _0x37
; 0000 0097 			d17=(cs & 0B00000001);// 17
	SBRC R7,0
	RJMP _0x38
	CBI  0x15,4
	RJMP _0x39
_0x38:
	SBI  0x15,4
_0x39:
; 0000 0098 			break;
	RJMP _0x6
; 0000 0099 		case 18:
_0x37:
	CPI  R30,LOW(0x12)
	LDI  R26,HIGH(0x12)
	CPC  R31,R26
	BRNE _0x3A
; 0000 009A 			d18=(cs & 0B00000010);// 18
	SBRC R7,1
	RJMP _0x3B
	CBI  0x15,3
	RJMP _0x3C
_0x3B:
	SBI  0x15,3
_0x3C:
; 0000 009B 			break;
	RJMP _0x6
; 0000 009C 		case 19:
_0x3A:
	CPI  R30,LOW(0x13)
	LDI  R26,HIGH(0x13)
	CPC  R31,R26
	BRNE _0x3D
; 0000 009D 			d19=(cs & 0B00000100);// 19
	SBRC R7,2
	RJMP _0x3E
	CBI  0x15,2
	RJMP _0x3F
_0x3E:
	SBI  0x15,2
_0x3F:
; 0000 009E 			break;
	RJMP _0x6
; 0000 009F 		case 20:
_0x3D:
	CPI  R30,LOW(0x14)
	LDI  R26,HIGH(0x14)
	CPC  R31,R26
	BRNE _0x43
; 0000 00A0 			d20=(cs & 0B00001000);// 20
	SBRC R7,3
	RJMP _0x41
	CBI  0x15,1
	RJMP _0x42
_0x41:
	SBI  0x15,1
_0x42:
; 0000 00A1 			break;
; 0000 00A2 		default:
_0x43:
; 0000 00A3 			break;
; 0000 00A4 		}
_0x6:
; 0000 00A5 }
	LD   R30,Y+
	OUT  SREG,R30
	LD   R31,Y+
	LD   R30,Y+
	LD   R26,Y+
	RETI
; .FEND
;
;// External Interrupt 0 service routine
;
;
;
;
;
;void proces_effect(void)
; 0000 00AE {
_proces_effect:
; .FSTART _proces_effect
; 0000 00AF     effect_line++;
	INC  R9
; 0000 00B0     if (effect_line==100) {effect_line=0;}
	LDI  R30,LOW(100)
	CP   R30,R9
	BRNE _0x44
	CLR  R9
; 0000 00B1     set_led_state(ae[effect_line],be[effect_line],ce[effect_line]);
_0x44:
	MOV  R30,R9
	LDI  R31,0
	SUBI R30,LOW(-_ae*2)
	SBCI R31,HIGH(-_ae*2)
	RCALL SUBOPT_0x0
	SUBI R30,LOW(-_be*2)
	SBCI R31,HIGH(-_be*2)
	RCALL SUBOPT_0x0
	SUBI R30,LOW(-_ce*2)
	SBCI R31,HIGH(-_ce*2)
	RCALL SUBOPT_0x1
; 0000 00B2     delay_ms(30);
	LDI  R26,LOW(30)
	LDI  R27,0
	RCALL _delay_ms
; 0000 00B3 }
	RET
; .FEND
;
;void proces_play(void)
; 0000 00B6 {
_proces_play:
; .FSTART _proces_play
; 0000 00B7                 curent_line++;
	INC  R8
; 0000 00B8                 if (curent_line==max_line)
	LDI  R30,LOW(200)
	CP   R30,R8
	BRNE _0x45
; 0000 00B9                  {
; 0000 00BA                     curent_line=0;
	CLR  R8
; 0000 00BB 
; 0000 00BC                     n_pic++;
	INC  R11
; 0000 00BD                     if (n_pic>max_pic) n_pic=1;play_en--;
	LDI  R30,LOW(5)
	CP   R30,R11
	BRSH _0x46
	LDI  R30,LOW(1)
	MOV  R11,R30
_0x46:
	DEC  R10
; 0000 00BE                 }
; 0000 00BF     if (n_pic==1){set_led_state(a1[curent_line],b1[curent_line],c1[curent_line]);}
_0x45:
	LDI  R30,LOW(1)
	CP   R30,R11
	BRNE _0x47
	RCALL SUBOPT_0x2
	SUBI R30,LOW(-_a1*2)
	SBCI R31,HIGH(-_a1*2)
	RCALL SUBOPT_0x3
	SUBI R30,LOW(-_b1*2)
	SBCI R31,HIGH(-_b1*2)
	RCALL SUBOPT_0x3
	SUBI R30,LOW(-_c1*2)
	SBCI R31,HIGH(-_c1*2)
	RCALL SUBOPT_0x1
; 0000 00C0     if (n_pic==2){set_led_state(a2[curent_line],b2[curent_line],c2[curent_line]);}
_0x47:
	LDI  R30,LOW(2)
	CP   R30,R11
	BRNE _0x48
	RCALL SUBOPT_0x2
	SUBI R30,LOW(-_a2*2)
	SBCI R31,HIGH(-_a2*2)
	RCALL SUBOPT_0x3
	SUBI R30,LOW(-_b2*2)
	SBCI R31,HIGH(-_b2*2)
	RCALL SUBOPT_0x3
	SUBI R30,LOW(-_c2*2)
	SBCI R31,HIGH(-_c2*2)
	RCALL SUBOPT_0x1
; 0000 00C1     if (n_pic==3){set_led_state(a3[curent_line],b3[curent_line],c3[curent_line]);}
_0x48:
	LDI  R30,LOW(3)
	CP   R30,R11
	BRNE _0x49
	RCALL SUBOPT_0x2
	SUBI R30,LOW(-_a3*2)
	SBCI R31,HIGH(-_a3*2)
	RCALL SUBOPT_0x3
	SUBI R30,LOW(-_b3*2)
	SBCI R31,HIGH(-_b3*2)
	RCALL SUBOPT_0x3
	SUBI R30,LOW(-_c3*2)
	SBCI R31,HIGH(-_c3*2)
	RCALL SUBOPT_0x1
; 0000 00C2     if (n_pic==4){set_led_state(a4[curent_line],b4[curent_line],c4[curent_line]);}
_0x49:
	LDI  R30,LOW(4)
	CP   R30,R11
	BRNE _0x4A
	RCALL SUBOPT_0x2
	SUBI R30,LOW(-_a4*2)
	SBCI R31,HIGH(-_a4*2)
	RCALL SUBOPT_0x3
	SUBI R30,LOW(-_b4*2)
	SBCI R31,HIGH(-_b4*2)
	RCALL SUBOPT_0x3
	SUBI R30,LOW(-_c4*2)
	SBCI R31,HIGH(-_c4*2)
	RCALL SUBOPT_0x1
; 0000 00C3     if (n_pic==5){set_led_state(a5[curent_line],b5[curent_line],c5[curent_line]);}
_0x4A:
	LDI  R30,LOW(5)
	CP   R30,R11
	BRNE _0x4B
	RCALL SUBOPT_0x2
	SUBI R30,LOW(-_a5*2)
	SBCI R31,HIGH(-_a5*2)
	RCALL SUBOPT_0x3
	SUBI R30,LOW(-_b5*2)
	SBCI R31,HIGH(-_b5*2)
	RCALL SUBOPT_0x3
	SUBI R30,LOW(-_c5*2)
	SBCI R31,HIGH(-_c5*2)
	RCALL SUBOPT_0x1
; 0000 00C4     //                if (n_pic==6){set_led_state(a6[curent_line],b6[curent_line],c6[curent_line]);}
; 0000 00C5 delay_us(700);
_0x4B:
	__DELAY_USW 1400
; 0000 00C6 }
	RET
; .FEND
;
;void main(void)
; 0000 00C9 {
_main:
; .FSTART _main
; 0000 00CA // Declare your local variables here
; 0000 00CB 
; 0000 00CC // Input/Output Ports initialization
; 0000 00CD // Port B initialization
; 0000 00CE // Function: Bit7=Out Bit6=Out Bit5=In Bit4=Out Bit3=Out Bit2=Out Bit1=Out Bit0=Out
; 0000 00CF DDRB=(1<<DDB7) | (1<<DDB6) | (0<<DDB5) | (1<<DDB4) | (1<<DDB3) | (1<<DDB2) | (1<<DDB1) | (1<<DDB0);
	LDI  R30,LOW(223)
	OUT  0x17,R30
; 0000 00D0 // State: Bit7=0 Bit6=0 Bit5=T Bit4=0 Bit3=0 Bit2=0 Bit1=0 Bit0=0
; 0000 00D1 PORTB=(0<<PORTB7) | (0<<PORTB6) | (0<<PORTB5) | (0<<PORTB4) | (0<<PORTB3) | (0<<PORTB2) | (0<<PORTB1) | (0<<PORTB0);
	LDI  R30,LOW(0)
	OUT  0x18,R30
; 0000 00D2 
; 0000 00D3 // Port C initialization
; 0000 00D4 // Function: Bit6=Out Bit5=Out Bit4=Out Bit3=Out Bit2=Out Bit1=Out Bit0=out
; 0000 00D5 DDRC=(1<<DDC6) | (1<<DDC5) | (1<<DDC4) | (1<<DDC3) | (1<<DDC2) | (1<<DDC1) | (1<<DDC0);
	LDI  R30,LOW(127)
	OUT  0x14,R30
; 0000 00D6 // State: Bit6=0 Bit5=0 Bit4=0 Bit3=0 Bit2=0 Bit1=0 Bit0=T
; 0000 00D7 PORTC=(0<<PORTC6) | (0<<PORTC5) | (0<<PORTC4) | (0<<PORTC3) | (0<<PORTC2) | (0<<PORTC1) | (0<<PORTC0);
	LDI  R30,LOW(0)
	OUT  0x15,R30
; 0000 00D8 
; 0000 00D9 // Port D initialization
; 0000 00DA // Function: Bit7=Out Bit6=Out Bit5=Out Bit4=Out Bit3=Out Bit2=in Bit1=Out Bit0=Out
; 0000 00DB DDRD=(1<<DDD7) | (1<<DDD6) | (1<<DDD5) | (1<<DDD4) | (1<<DDD3) | (0<<DDD2) | (1<<DDD1) | (1<<DDD0);
	LDI  R30,LOW(251)
	OUT  0x11,R30
; 0000 00DC // State: Bit7=0 Bit6=0 Bit5=0 Bit4=0 Bit3=0 Bit2=0 Bit1=0 Bit0=0
; 0000 00DD PORTD=(0<<PORTD7) | (0<<PORTD6) | (0<<PORTD5) | (0<<PORTD4) | (0<<PORTD3) | (0<<PORTD2) | (0<<PORTD1) | (0<<PORTD0);
	LDI  R30,LOW(0)
	OUT  0x12,R30
; 0000 00DE 
; 0000 00DF 
; 0000 00E0 // Timer/Counter 0 initialization
; 0000 00E1 // Clock source: System Clock
; 0000 00E2 // Clock value: Timer 0 Stopped
; 0000 00E3 TCCR0=0x00;
	OUT  0x33,R30
; 0000 00E4 TCNT0=0x00;
	OUT  0x32,R30
; 0000 00E5 
; 0000 00E6 
; 0000 00E7 // Timer/Counter 1 initialization
; 0000 00E8 // Clock source: System Clock
; 0000 00E9 // Clock value: 125,000 kHz
; 0000 00EA // Mode: Normal top=0xFFFF
; 0000 00EB // OC1A output: Discon.
; 0000 00EC // OC1B output: Discon.
; 0000 00ED // Noise Canceler: Off
; 0000 00EE // Input Capture on Falling Edge
; 0000 00EF // Timer1 Overflow Interrupt: On
; 0000 00F0 // Input Capture Interrupt: Off
; 0000 00F1 // Compare A Match Interrupt: Off
; 0000 00F2 // Compare B Match Interrupt: Off
; 0000 00F3 TCCR1A=0x00;
	OUT  0x2F,R30
; 0000 00F4 TCCR1B=0x04;
	LDI  R30,LOW(4)
	OUT  0x2E,R30
; 0000 00F5 TCNT1H=0x00;
	LDI  R30,LOW(0)
	OUT  0x2D,R30
; 0000 00F6 TCNT1L=0x00;
	OUT  0x2C,R30
; 0000 00F7 ICR1H=0x00;
	OUT  0x27,R30
; 0000 00F8 ICR1L=0x00;
	OUT  0x26,R30
; 0000 00F9 OCR1AH=0x00;
	OUT  0x2B,R30
; 0000 00FA OCR1AL=0x00;
	OUT  0x2A,R30
; 0000 00FB OCR1BH=0x00;
	OUT  0x29,R30
; 0000 00FC OCR1BL=0x00;
	OUT  0x28,R30
; 0000 00FD 
; 0000 00FE // Timer/Counter 2 initialization
; 0000 00FF // Clock source: System Clock
; 0000 0100 // Clock value: 1000,000 kHz
; 0000 0101 // Mode: Normal top=0xFF
; 0000 0102 // OC2 output: Disconnected
; 0000 0103 // Timer Period: 0,25 ms
; 0000 0104 ASSR=0<<AS2;
	OUT  0x22,R30
; 0000 0105 TCCR2=(0<<PWM2) | (0<<COM21) | (0<<COM20) | (0<<CTC2) | (0<<CS22) | (1<<CS21) | (0<<CS20);
	LDI  R30,LOW(2)
	OUT  0x25,R30
; 0000 0106 TCNT2=0x06;
	LDI  R30,LOW(6)
	OUT  0x24,R30
; 0000 0107 OCR2=0x00;
	LDI  R30,LOW(0)
	OUT  0x23,R30
; 0000 0108 
; 0000 0109 // External Interrupt(s) initialization
; 0000 010A // INT0: On
; 0000 010B // INT0 Mode: Falling Edge
; 0000 010C // INT1: Off
; 0000 010D GICR|=(0<<INT1) | (0<<INT0);
	IN   R30,0x3B
	OUT  0x3B,R30
; 0000 010E MCUCR=(0<<ISC11) | (0<<ISC10) | (1<<ISC01) | (0<<ISC00);
	LDI  R30,LOW(2)
	OUT  0x35,R30
; 0000 010F GIFR=(0<<INTF1) | (1<<INTF0);
	LDI  R30,LOW(64)
	OUT  0x3A,R30
; 0000 0110 
; 0000 0111 // Timer(s)/Counter(s) Interrupt(s) initialization
; 0000 0112 TIMSK=(0<<OCIE2) | (1<<TOIE2) | (0<<TICIE1) | (0<<OCIE1A) | (0<<OCIE1B) | (0<<TOIE1) | (0<<TOIE0);
	OUT  0x39,R30
; 0000 0113 
; 0000 0114 
; 0000 0115 // USART initialization
; 0000 0116 // USART disabled
; 0000 0117 UCSRB=0x00;
	LDI  R30,LOW(0)
	OUT  0xA,R30
; 0000 0118 
; 0000 0119 // Analog Comparator initialization
; 0000 011A // Analog Comparator: Off
; 0000 011B // Analog Comparator Input Capture by Timer/Counter 1: Off
; 0000 011C ACSR=0x80;
	LDI  R30,LOW(128)
	OUT  0x8,R30
; 0000 011D SFIOR=0x00;
	LDI  R30,LOW(0)
	OUT  0x30,R30
; 0000 011E 
; 0000 011F // ADC initialization
; 0000 0120 // ADC disabled
; 0000 0121 ADCSRA=0x00;
	OUT  0x6,R30
; 0000 0122 
; 0000 0123 // SPI initialization
; 0000 0124 // SPI disabled
; 0000 0125 SPCR=0x00;
	OUT  0xD,R30
; 0000 0126 
; 0000 0127 // TWI initialization
; 0000 0128 // TWI disabled
; 0000 0129 TWCR=0x00;
	OUT  0x36,R30
; 0000 012A 
; 0000 012B // Global enable interrupts
; 0000 012C #asm("sei")
	sei
; 0000 012D 
; 0000 012E while (1)
_0x4C:
; 0000 012F       {
; 0000 0130         if (but==0) {proces_effect();play_en=0;}
	SBIC 0x16,5
	RJMP _0x4F
	RCALL _proces_effect
	CLR  R10
; 0000 0131         if (but==1 && old_but==0){set_led_state(0,0,0);play_en=100;}
_0x4F:
	SBIS 0x16,5
	RJMP _0x51
	SBRS R2,0
	RJMP _0x52
_0x51:
	RJMP _0x50
_0x52:
	LDI  R30,LOW(0)
	ST   -Y,R30
	ST   -Y,R30
	LDI  R26,LOW(0)
	RCALL _set_led_state
	LDI  R30,LOW(100)
	MOV  R10,R30
; 0000 0132         old_but=but;
_0x50:
	CLT
	SBIC 0x16,5
	SET
	BLD  R2,0
; 0000 0133         if (play_en>2) {proces_play();}
	LDI  R30,LOW(2)
	CP   R30,R10
	BRSH _0x53
	RCALL _proces_play
; 0000 0134       }
_0x53:
	RJMP _0x4C
; 0000 0135 }
_0x54:
	RJMP _0x54
; .FEND
	#ifndef __SLEEP_DEFINED__
	#define __SLEEP_DEFINED__
	.EQU __se_bit=0x80
	.EQU __sm_mask=0x70
	.EQU __sm_powerdown=0x20
	.EQU __sm_powersave=0x30
	.EQU __sm_standby=0x60
	.EQU __sm_ext_standby=0x70
	.EQU __sm_adc_noise_red=0x10
	.SET power_ctrl_reg=mcucr
	#endif

	.CSEG

	.CSEG
;OPTIMIZER ADDED SUBROUTINE, CALLED 2 TIMES, CODE SIZE REDUCTION:1 WORDS
SUBOPT_0x0:
	LPM  R30,Z
	ST   -Y,R30
	MOV  R30,R9
	LDI  R31,0
	RET

;OPTIMIZER ADDED SUBROUTINE, CALLED 6 TIMES, CODE SIZE REDUCTION:3 WORDS
SUBOPT_0x1:
	LPM  R26,Z
	RJMP _set_led_state

;OPTIMIZER ADDED SUBROUTINE, CALLED 15 TIMES, CODE SIZE REDUCTION:12 WORDS
SUBOPT_0x2:
	MOV  R30,R8
	LDI  R31,0
	RET

;OPTIMIZER ADDED SUBROUTINE, CALLED 10 TIMES, CODE SIZE REDUCTION:16 WORDS
SUBOPT_0x3:
	LPM  R30,Z
	ST   -Y,R30
	RJMP SUBOPT_0x2


	.CSEG
_delay_ms:
	adiw r26,0
	breq __delay_ms1
__delay_ms0:
	__DELAY_USW 0x7D0
	wdr
	sbiw r26,1
	brne __delay_ms0
__delay_ms1:
	ret

;END OF CODE MARKER
__END_OF_CODE:
